 bufferutil

 Timestamp is 5e37ce21 (Mon Feb  3 13:09:13 2020)

 Preferred load address is 0000000180000000

 Start         Length     Name                   Class
 0001:00000000 000140f0H .text$mn                CODE
 0001:000140f0 00000020H .text$mn$00             CODE
 0001:00014110 00000250H .text$x                 CODE
 0002:00000000 00000258H .idata$5                DATA
 0002:00000258 00000010H .00cfg                  DATA
 0002:00000268 00000008H .CRT$XCA                DATA
 0002:00000270 00000008H .CRT$XCU                DATA
 0002:00000278 00000008H .CRT$XCZ                DATA
 0002:00000280 00000008H .CRT$XIA                DATA
 0002:00000288 00000018H .CRT$XIC                DATA
 0002:000002a0 00000008H .CRT$XIZ                DATA
 0002:000002a8 00000008H .CRT$XPA                DATA
 0002:000002b0 00000010H .CRT$XPX                DATA
 0002:000002c0 00000008H .CRT$XPXA               DATA
 0002:000002c8 00000008H .CRT$XPZ                DATA
 0002:000002d0 00000008H .CRT$XTA                DATA
 0002:000002d8 00000008H .CRT$XTZ                DATA
 0002:000002e0 00000000H .gfids$y                DATA
 0002:000002e0 00008620H .rdata                  DATA
 0002:00008900 000001f4H .rdata$r                DATA
 0002:00008af4 000003b4H .rdata$zzzdbg           DATA
 0002:00008ea8 00000008H .rtc$IAA                DATA
 0002:00008eb0 00000008H .rtc$IZZ                DATA
 0002:00008eb8 00000008H .rtc$TAA                DATA
 0002:00008ec0 00000008H .rtc$TZZ                DATA
 0002:00008ec8 00000fe8H .xdata                  DATA
 0002:00009eb0 000000ecH .xdata$x                DATA
 0002:00009f9c 00000020H .didat$2                DATA
 0002:00009fbc 00000024H .didat$3                DATA
 0002:00009fe0 00000140H .didat$4                DATA
 0002:0000a120 00000b00H .didat$6                DATA
 0002:0000ac20 00000140H .didat$7                DATA
 0002:0000ad60 00000058H .edata                  DATA
 0002:0000adb8 00000014H .idata$2                DATA
 0002:0000adcc 00000014H .idata$3                DATA
 0002:0000ade0 00000258H .idata$4                DATA
 0002:0000b038 00000574H .idata$6                DATA
 0003:00000000 00000a80H .data                   DATA
 0003:00000a80 000000a0H .data$r                 DATA
 0003:00000b20 00000140H .didat$5                DATA
 0003:00000c60 00001218H .bss                    DATA
 0004:00000000 00001350H .pdata                  DATA
 0005:00000000 00000060H .rsrc$01                DATA
 0005:00000060 00000180H .rsrc$02                DATA

  Address         Publics by Value              Rva+Base               Lib:Object

 0000:00000000       __hybrid_code_map_count    0000000000000000     <absolute>
 0000:00000000       __hybrid_code_map          0000000000000000     <absolute>
 0000:00000000       __guard_iat_count          0000000000000000     <absolute>
 0000:00000000       __guard_longjmp_count      0000000000000000     <absolute>
 0000:00000000       __guard_longjmp_table      0000000000000000     <absolute>
 0000:00000000       __volatile_metadata        0000000000000000     <absolute>
 0000:00000000       __guard_iat_table          0000000000000000     <absolute>
 0000:00000000       __guard_fids_count         0000000000000000     <absolute>
 0000:00000000       ___safe_se_handler_count   0000000000000000     <absolute>
 0000:00000000       __enclave_config           0000000000000000     <absolute>
 0000:00000000       ___safe_se_handler_table   0000000000000000     <absolute>
 0000:00000000       __guard_fids_table         0000000000000000     <absolute>
 0000:00000000       __hybrid_auxiliary_iat     0000000000000000     <absolute>
 0000:00000000       __dynamic_value_reloc_table 0000000000000000     <absolute>
 0000:00000100       __guard_flags              0000000000000100     <absolute>
 0000:00000000       __ImageBase                0000000180000000     <linker-defined>
 0001:00000000       ?Ref@ObjectWrap@node@@MEAAXXZ 0000000180001000 f i bufferutil.obj
 0001:00000040       ?Unref@ObjectWrap@node@@MEAAXXZ 0000000180001040 f i bufferutil.obj
 0001:000000f0       ?WeakCallback@ObjectWrap@node@@CAXAEBV?$WeakCallbackInfo@VObjectWrap@node@@@v8@@@Z 00000001800010f0 f i bufferutil.obj
 0001:00000150       ??_EBufferUtil@@UEAAPEAXI@Z 0000000180001150 f i * CIL library *:* CIL module *
 0001:00000150       ??_EObjectWrap@node@@UEAAPEAXI@Z 0000000180001150 f i * CIL library *:* CIL module *
 0001:00000150       ??_GObjectWrap@node@@UEAAPEAXI@Z 0000000180001150 f i bufferutil.obj
 0001:00000150       ??_GBufferUtil@@UEAAPEAXI@Z 0000000180001150 f i bufferutil.obj
 0001:000002c0       ?Initialize@BufferUtil@@SAXV?$Local@VObject@v8@@@v8@@@Z 00000001800012c0 f i bufferutil.obj
 0001:000005b0       ?New@BufferUtil@@KAXAEBV?$FunctionCallbackInfo@VValue@v8@@@Nan@@@Z 00000001800015b0 f i bufferutil.obj
 0001:000006f0       ?Merge@BufferUtil@@KAXAEBV?$FunctionCallbackInfo@VValue@v8@@@Nan@@@Z 00000001800016f0 f i bufferutil.obj
 0001:00000980       ?Unmask@BufferUtil@@KAXAEBV?$FunctionCallbackInfo@VValue@v8@@@Nan@@@Z 0000000180001980 f i bufferutil.obj
 0001:00000c00       ?Mask@BufferUtil@@KAXAEBV?$FunctionCallbackInfo@VValue@v8@@@Nan@@@Z 0000000180001c00 f i bufferutil.obj
 0001:00001020       ?init@@YAXV?$Local@VObject@v8@@@v8@@@Z 0000000180002020 f   bufferutil.obj
 0001:00001070       ??$New@VFunctionTemplate@v8@@@Nan@@YA?AV?$Local@VFunctionTemplate@v8@@@v8@@P6AXAEBV?$FunctionCallbackInfo@VValue@v8@@@0@@ZV?$Local@VValue@v8@@@2@@Z 0000000180002070 f i bufferutil.obj
 0001:00001264       __imp_load_?Value@External@v8@@QEBAPEAXXZ 0000000180002264 f   node:node.exe
 0001:00001270       __tailMerge_node_exe       0000000180002270     node:node.exe
 0001:000012e9       __imp_load_?New@External@v8@@SA?AV?$Local@VExternal@v8@@@2@PEAVIsolate@2@PEAX@Z 00000001800022e9 f   node:node.exe
 0001:000012f5       __imp_load_?NewFromUnsigned@Integer@v8@@SA?AV?$Local@VInteger@v8@@@2@PEAVIsolate@2@I@Z 00000001800022f5 f   node:node.exe
 0001:00001301       __imp_load_?GetCurrentContext@Isolate@v8@@QEAA?AV?$Local@VContext@v8@@@2@XZ 0000000180002301 f   node:node.exe
 0001:0000130d       __imp_load_?GetCurrent@Isolate@v8@@SAPEAV12@XZ 000000018000230d f   node:node.exe
 0001:00001319       __imp_load_?CreateHandle@HandleScope@v8@@KAPEAPEAVObject@internal@2@PEAVIsolate@42@PEAV342@@Z 0000000180002319 f   node:node.exe
 0001:00001325       __imp_load_?CreateHandle@HandleScope@v8@@CAPEAPEAVObject@internal@2@PEAVHeapObject@42@PEAV342@@Z 0000000180002325 f   node:node.exe
 0001:00001331       __imp_load_??1HandleScope@v8@@QEAA@XZ 0000000180002331 f   node:node.exe
 0001:0000133d       __imp_load_??0HandleScope@v8@@QEAA@PEAVIsolate@1@@Z 000000018000233d f   node:node.exe
 0001:00001349       __imp_load_?Set@Template@v8@@QEAAXV?$Local@VName@v8@@@2@V?$Local@VData@v8@@@2@W4PropertyAttribute@2@@Z 0000000180002349 f   node:node.exe
 0001:00001355       __imp_load_?Length@Array@v8@@QEBAIXZ 0000000180002355 f   node:node.exe
 0001:00001361       __imp_load_?SetClassName@FunctionTemplate@v8@@QEAAXV?$Local@VString@v8@@@2@@Z 0000000180002361 f   node:node.exe
 0001:0000136d       __imp_load_?InstanceTemplate@FunctionTemplate@v8@@QEAA?AV?$Local@VObjectTemplate@v8@@@2@XZ 000000018000236d f   node:node.exe
 0001:00001379       __imp_load_?GetFunction@FunctionTemplate@v8@@QEAA?AV?$MaybeLocal@VFunction@v8@@@2@V?$Local@VContext@v8@@@2@@Z 0000000180002379 f   node:node.exe
 0001:00001385       __imp_load_?New@FunctionTemplate@v8@@SA?AV?$Local@VFunctionTemplate@v8@@@2@PEAVIsolate@2@P6AXAEBV?$FunctionCallbackInfo@VValue@v8@@@2@@ZV?$Local@VValue@v8@@@2@V?$Local@VSignature@v8@@@2@HW4ConstructorBehavior@2@W4SideEffectType@2@@Z 0000000180002385 f   node:node.exe
 0001:00001391       __imp_load_?ToLocalEmpty@V8@v8@@CAXXZ 0000000180002391 f   node:node.exe
 0001:0000139d       __imp_load_?ClearWeak@V8@v8@@CAPEAXPEAPEAVObject@internal@2@@Z 000000018000239d f   node:node.exe
 0001:000013a9       __imp_load_?MakeWeak@V8@v8@@CAXPEAPEAVObject@internal@2@PEAXP6AXAEBV?$WeakCallbackInfo@X@2@@ZW4WeakCallbackType@2@@Z 00000001800023a9 f   node:node.exe
 0001:000013b5       __imp_load_?DisposeGlobal@V8@v8@@CAXPEAPEAVObject@internal@2@@Z 00000001800023b5 f   node:node.exe
 0001:000013c1       __imp_load_?GlobalizeReference@V8@v8@@CAPEAPEAVObject@internal@2@PEAVIsolate@42@PEAPEAV342@@Z 00000001800023c1 f   node:node.exe
 0001:000013cd       __imp_load_?ToInt32@Value@v8@@QEBA?AV?$MaybeLocal@VInt32@v8@@@2@V?$Local@VContext@v8@@@2@@Z 00000001800023cd f   node:node.exe
 0001:000013d9       __imp_load_?ToUint32@Value@v8@@QEBA?AV?$MaybeLocal@VUint32@v8@@@2@V?$Local@VContext@v8@@@2@@Z 00000001800023d9 f   node:node.exe
 0001:000013e5       __imp_load_?ToObject@Value@v8@@QEBA?AV?$MaybeLocal@VObject@v8@@@2@V?$Local@VContext@v8@@@2@@Z 00000001800023e5 f   node:node.exe
 0001:000013f1       __imp_load_?Escape@EscapableHandleScope@v8@@AEAAPEAPEAVObject@internal@2@PEAPEAV342@@Z 00000001800023f1 f   node:node.exe
 0001:000013fd       __imp_load_??0EscapableHandleScope@v8@@QEAA@PEAVIsolate@1@@Z 00000001800023fd f   node:node.exe
 0001:00001409       __imp_load_?NewFromUtf8@String@v8@@SA?AV?$MaybeLocal@VString@v8@@@2@PEAVIsolate@2@PEBDW4NewStringType@2@H@Z 0000000180002409 f   node:node.exe
 0001:00001415       __imp_load_?Value@Int32@v8@@QEBAHXZ 0000000180002415 f   node:node.exe
 0001:00001421       __imp_load_?SlowGetInternalField@Object@v8@@AEAA?AV?$Local@VValue@v8@@@2@H@Z 0000000180002421 f   node:node.exe
 0001:0000142d       __imp_load_?SetAlignedPointerInInternalField@Object@v8@@QEAAXHPEAX@Z 000000018000242d f   node:node.exe
 0001:00001439       __imp_load_?SetInternalField@Object@v8@@QEAAXHV?$Local@VValue@v8@@@2@@Z 0000000180002439 f   node:node.exe
 0001:00001445       __imp_load_?InternalFieldCount@Object@v8@@QEAAHXZ 0000000180002445 f   node:node.exe
 0001:00001451       __imp_load_?Get@Object@v8@@QEAA?AV?$MaybeLocal@VValue@v8@@@2@V?$Local@VContext@v8@@@2@V?$Local@VValue@v8@@@2@@Z 0000000180002451 f   node:node.exe
 0001:0000145d       __imp_load_?Set@Object@v8@@QEAA?AV?$Maybe@_N@2@V?$Local@VContext@v8@@@2@V?$Local@VValue@v8@@@2@1@Z 000000018000245d f   node:node.exe
 0001:00001469       __imp_load_?SetInternalFieldCount@ObjectTemplate@v8@@QEAAXH@Z 0000000180002469 f   node:node.exe
 0001:00001475       __imp_load_?NewInstance@ObjectTemplate@v8@@QEAA?AV?$MaybeLocal@VObject@v8@@@2@V?$Local@VContext@v8@@@2@@Z 0000000180002475 f   node:node.exe
 0001:00001481       __imp_load_?New@ObjectTemplate@v8@@SA?AV?$Local@VObjectTemplate@v8@@@2@PEAVIsolate@2@V?$Local@VFunctionTemplate@v8@@@2@@Z 0000000180002481 f   node:node.exe
 0001:0000148d       __imp_load_node_module_register 000000018000248d f   node:node.exe
 0001:00001499       __imp_load_?Data@Buffer@node@@YAPEADV?$Local@VObject@v8@@@v8@@@Z 0000000180002499 f   node:node.exe
 0001:000014a5       __imp_load_?Length@Buffer@node@@YA_KV?$Local@VObject@v8@@@v8@@@Z 00000001800024a5 f   node:node.exe
 0001:000014d0       __security_check_cookie    00000001800024d0 f   LIBCMT:amdsecgs.obj
 0001:000014f4       ??2@YAPEAX_K@Z             00000001800024f4 f   LIBCMT:new_scalar.obj
 0001:00001530       ??3@YAXPEAX_K@Z            0000000180002530 f   LIBCMT:delete_scalar_size.obj
 0001:00001868       _DllMainCRTStartup         0000000180002868 f   LIBCMT:dll_dllmain.obj
 0001:000018a8       __raise_securityfailure    00000001800028a8 f   LIBCMT:gs_report.obj
 0001:000018dc       __report_gsfailure         00000001800028dc f   LIBCMT:gs_report.obj
 0001:000019b0       __report_rangecheckfailure 00000001800029b0 f   LIBCMT:gs_report.obj
 0001:000019c4       __report_securityfailure   00000001800029c4 f   LIBCMT:gs_report.obj
 0001:00001b44       ??0bad_alloc@std@@QEAA@AEBV01@@Z 0000000180002b44 f i LIBCMT:throw_bad_alloc.obj
 0001:00001b84       ??0bad_alloc@std@@QEAA@XZ  0000000180002b84 f i LIBCMT:throw_bad_alloc.obj
 0001:00001ba4       ??0bad_array_new_length@std@@QEAA@AEBV01@@Z 0000000180002ba4 f i LIBCMT:throw_bad_alloc.obj
 0001:00001be4       ??0bad_array_new_length@std@@QEAA@XZ 0000000180002be4 f i LIBCMT:throw_bad_alloc.obj
 0001:00001c04       ??0exception@std@@QEAA@AEBV01@@Z 0000000180002c04 f i LIBCMT:throw_bad_alloc.obj
 0001:00001c3c       ??1bad_array_new_length@std@@UEAA@XZ 0000000180002c3c f i LIBCMT:throw_bad_alloc.obj
 0001:00001c3c       ??1bad_alloc@std@@UEAA@XZ  0000000180002c3c f i LIBCMT:throw_bad_alloc.obj
 0001:00001c50       ??_Ebad_array_new_length@std@@UEAAPEAXI@Z 0000000180002c50 f i LIBCMT:throw_bad_alloc.obj
 0001:00001c50       ??_Eexception@std@@UEAAPEAXI@Z 0000000180002c50 f i LIBCMT:throw_bad_alloc.obj
 0001:00001c50       ??_Gbad_array_new_length@std@@UEAAPEAXI@Z 0000000180002c50 f i LIBCMT:throw_bad_alloc.obj
 0001:00001c50       ??_Ebad_alloc@std@@UEAAPEAXI@Z 0000000180002c50 f i LIBCMT:throw_bad_alloc.obj
 0001:00001c50       ??_Gbad_alloc@std@@UEAAPEAXI@Z 0000000180002c50 f i LIBCMT:throw_bad_alloc.obj
 0001:00001c50       ??_Gexception@std@@UEAAPEAXI@Z 0000000180002c50 f i LIBCMT:throw_bad_alloc.obj
 0001:00001c94       ?__scrt_throw_std_bad_alloc@@YAXXZ 0000000180002c94 f   LIBCMT:throw_bad_alloc.obj
 0001:00001cb4       ?__scrt_throw_std_bad_array_new_length@@YAXXZ 0000000180002cb4 f   LIBCMT:throw_bad_alloc.obj
 0001:00001cd4       ?what@exception@std@@UEBAPEBDXZ 0000000180002cd4 f i LIBCMT:throw_bad_alloc.obj
 0001:00001ce8       ??3@YAXPEAX@Z              0000000180002ce8 f   LIBCMT:delete_scalar.obj
 0001:00001cf0       __security_init_cookie     0000000180002cf0 f   LIBCMT:gs_support.obj
 0001:00001d9c       _get_startup_argv_mode     0000000180002d9c f   LIBCMT:argv_mode.obj
 0001:00001d9c       DllMain                    0000000180002d9c f   LIBCMT:dll_dllmain_stub.obj
 0001:00001da4       ?__scrt_initialize_type_info@@YAXXZ 0000000180002da4 f   LIBCMT:tncleanup.obj
 0001:00001db4       ?__scrt_uninitialize_type_info@@YAXXZ 0000000180002db4 f   LIBCMT:tncleanup.obj
 0001:00001dc0       __local_stdio_printf_options 0000000180002dc0 f i LIBCMT:default_local_stdio_options.obj
 0001:00001dc8       __local_stdio_scanf_options 0000000180002dc8 f i LIBCMT:default_local_stdio_options.obj
 0001:00001dd0       __scrt_initialize_default_local_stdio_options 0000000180002dd0 f   LIBCMT:default_local_stdio_options.obj
 0001:00001dec       __scrt_acquire_startup_lock 0000000180002dec f   LIBCMT:utility.obj
 0001:00001e28       __scrt_dllmain_after_initialize_c 0000000180002e28 f   LIBCMT:utility.obj
 0001:00001e5c       __scrt_dllmain_before_initialize_c 0000000180002e5c f   LIBCMT:utility.obj
 0001:00001e74       __scrt_dllmain_crt_thread_attach 0000000180002e74 f   LIBCMT:utility.obj
 0001:00001e9c       __scrt_dllmain_crt_thread_detach 0000000180002e9c f   LIBCMT:utility.obj
 0001:00001eb4       __scrt_dllmain_exception_filter 0000000180002eb4 f   LIBCMT:utility.obj
 0001:00001f14       __scrt_dllmain_uninitialize_c 0000000180002f14 f   LIBCMT:utility.obj
 0001:00001f44       __scrt_dllmain_uninitialize_critical 0000000180002f44 f   LIBCMT:utility.obj
 0001:00001f58       __scrt_initialize_crt      0000000180002f58 f   LIBCMT:utility.obj
 0001:00001fa4       __scrt_initialize_onexit_tables 0000000180002fa4 f   LIBCMT:utility.obj
 0001:0000207c       __scrt_is_nonwritable_in_current_image 000000018000307c f   LIBCMT:utility.obj
 0001:00002118       __scrt_release_startup_lock 0000000180003118 f   LIBCMT:utility.obj
 0001:0000213c       __scrt_uninitialize_crt    000000018000313c f   LIBCMT:utility.obj
 0001:00002168       __scrt_get_dyn_tls_init_callback 0000000180003168 f   LIBCMT:dyn_tls_init.obj
 0001:00002170       __crt_debugger_hook        0000000180003170 f   LIBCMT:utility_desktop.obj
 0001:00002178       __scrt_fastfail            0000000180003178 f   LIBCMT:utility_desktop.obj
 0001:000022c4       _RTC_Initialize            00000001800032c4 f   LIBCMT:initsect.obj
 0001:00002300       _RTC_Terminate             0000000180003300 f   LIBCMT:initsect.obj
 0001:0000233c       _guard_check_icall_nop     000000018000333c f i LIBCMT:guard_support.obj
 0001:00002340       ??_Gtype_info@@UEAAPEAXI@Z 0000000180003340 f i LIBCMT:std_type_info_static.obj
 0001:00002340       ??_Etype_info@@UEAAPEAXI@Z 0000000180003340 f i LIBCMT:std_type_info_static.obj
 0001:0000236c       __isa_available_init       000000018000336c f   LIBCMT:cpu_disp.obj
 0001:000024e8       __scrt_is_ucrt_dll_in_use  00000001800034e8 f   LIBCMT:ucrt_detection.obj
 0001:00002500       __C_specific_handler       0000000180003500 f   libvcruntime:riscchandler.obj
 0001:0000270c       __std_exception_copy       000000018000370c f   libvcruntime:std_exception.obj
 0001:0000279c       __std_exception_destroy    000000018000379c f   libvcruntime:std_exception.obj
 0001:000027c4       _CxxThrowException         00000001800037c4 f   libvcruntime:throw.obj
 0001:00002884       __std_type_info_destroy_list 0000000180003884 f   libvcruntime:std_type_info.obj
 0001:000028b0       __vcrt_initialize          00000001800038b0 f   libvcruntime:initialization.obj
 0001:000028e4       __vcrt_thread_attach       00000001800038e4 f   libvcruntime:initialization.obj
 0001:000028f8       __vcrt_thread_detach       00000001800038f8 f   libvcruntime:initialization.obj
 0001:0000290c       __vcrt_uninitialize        000000018000390c f   libvcruntime:initialization.obj
 0001:0000292c       __vcrt_uninitialize_critical 000000018000392c f   libvcruntime:initialization.obj
 0001:00002950       memset_repmovs             0000000180003950 f   libvcruntime:memset.obj
 0001:00002970       memset                     0000000180003970 f   libvcruntime:memset.obj
 0001:00002b10       _NLG_Notify                0000000180003b10 f   libvcruntime:notify.obj
 0001:00002b30       __NLG_Dispatch2            0000000180003b30 f   libvcruntime:notify.obj
 0001:00002b40       __NLG_Return2              0000000180003b40 f   libvcruntime:notify.obj
 0001:00002b44       __except_validate_context_record 0000000180003b44 f   libvcruntime:jbcxrval.obj
 0001:00002b7c       __DestructExceptionObject  0000000180003b7c f   libvcruntime:ehhelpers.obj
 0001:00002bf0       ?_CallMemberFunction0@@YAXQEAX0@Z 0000000180003bf0 f i libvcruntime:ehhelpers.obj
 0001:00002bf4       __vcrt_freefls             0000000180003bf4 f   libvcruntime:per_thread_data.obj
 0001:00002c14       __vcrt_freeptd             0000000180003c14 f   libvcruntime:per_thread_data.obj
 0001:00002c64       __vcrt_getptd_noexit       0000000180003c64 f   libvcruntime:per_thread_data.obj
 0001:00002d30       __vcrt_initialize_ptd      0000000180003d30 f   libvcruntime:per_thread_data.obj
 0001:00002d84       __vcrt_uninitialize_ptd    0000000180003d84 f   libvcruntime:per_thread_data.obj
 0001:00002da8       __vcrt_initialize_locks    0000000180003da8 f   libvcruntime:locks.obj
 0001:00002df0       __vcrt_uninitialize_locks  0000000180003df0 f   libvcruntime:locks.obj
 0001:00003000       __vcrt_FlsAlloc            0000000180004000 f   libvcruntime:winapi_downlevel.obj
 0001:00003048       __vcrt_FlsFree             0000000180004048 f   libvcruntime:winapi_downlevel.obj
 0001:00003090       __vcrt_FlsGetValue         0000000180004090 f   libvcruntime:winapi_downlevel.obj
 0001:000030d8       __vcrt_FlsSetValue         00000001800040d8 f   libvcruntime:winapi_downlevel.obj
 0001:0000312c       __vcrt_InitializeCriticalSectionEx 000000018000412c f   libvcruntime:winapi_downlevel.obj
 0001:00003190       __vcrt_initialize_winapi_thunks 0000000180004190 f   libvcruntime:winapi_downlevel.obj
 0001:000031c0       __vcrt_uninitialize_winapi_thunks 00000001800041c0 f   libvcruntime:winapi_downlevel.obj
 0001:00003200       __vcrt_initialize_pure_virtual_call_handler 0000000180004200 f   libvcruntime:purevirt_data.obj
 0001:00003220       memcpy_repmovs             0000000180004220 f   libvcruntime:memcpy.obj
 0001:00003240       memmove                    0000000180004240 f   libvcruntime:memcpy.obj
 0001:00003240       memcpy                     0000000180004240 f   libvcruntime:memcpy.obj
 0001:00003680       _CallSettingFrame          0000000180004680 f   libvcruntime:handlers.obj
 0001:000036d0       _CallSettingFrameEncoded   00000001800046d0 f   libvcruntime:handlers.obj
 0001:00003e30       ??$ftprintf@PEAU_iobuf@@PEB_WAEBQEB_WAEBQEB_WAEBI@?$__crt_char_traits@_W@@SAH$$QEAPEAU_iobuf@@$$QEAPEB_WAEBQEB_W2AEBI@Z 0000000180004e30 f i libucrt:assert.obj
 0001:00003e58       _wassert                   0000000180004e58 f   libucrt:assert.obj
 0001:00003ecc       fwprintf                   0000000180004ecc f i libucrt:assert.obj
 0001:00003f10       swprintf                   0000000180004f10 f i libucrt:assert.obj
 0001:00003f64       ??0_LocaleUpdate@@QEAA@QEAU__crt_locale_pointers@@@Z 0000000180004f64 f i libucrt:stricmp.obj
 0001:00004000       __ascii_stricmp            0000000180005000 f   libucrt:stricmp.obj
 0001:00004040       _stricmp                   0000000180005040 f   libucrt:stricmp.obj
 0001:00004088       _stricmp_l                 0000000180005088 f   libucrt:stricmp.obj
 0001:0000413c       __acrt_initialize_new_handler 000000018000513c f   libucrt:new_handler.obj
 0001:00004144       _callnewh                  0000000180005144 f   libucrt:new_handler.obj
 0001:00004174       _query_new_handler         0000000180005174 f   libucrt:new_handler.obj
 0001:000041a8       malloc                     00000001800051a8 f   libucrt:malloc.obj
 0001:000041b0       _initterm                  00000001800051b0 f   libucrt:initterm.obj
 0001:00004214       _initterm_e                0000000180005214 f   libucrt:initterm.obj
 0001:00004254       free                       0000000180005254 f   libucrt:free.obj
 0001:00004268       _seh_filter_dll            0000000180005268 f   libucrt:exception_filter.obj
 0001:0000427c       _seh_filter_exe            000000018000527c f   libucrt:exception_filter.obj
 0001:0000466c       __acrt_initialize_thread_local_exit_callback 000000018000566c f   libucrt:exit.obj
 0001:00004674       _cexit                     0000000180005674 f   libucrt:exit.obj
 0001:00004684       _exit                      0000000180005684 f   libucrt:exit.obj
 0001:00004690       _is_c_termination_complete 0000000180005690 f   libucrt:exit.obj
 0001:0000485c       __acrt_allocate_buffer_for_argv 000000018000585c f   libucrt:argv_parsing.obj
 0001:000048bc       _configure_narrow_argv     00000001800058bc f   libucrt:argv_parsing.obj
 0001:00004c34       __dcrt_uninitialize_environments_nolock 0000000180005c34 f   libucrt:environment_initialization.obj
 0001:00004c6c       _initialize_narrow_environment 0000000180005c6c f   libucrt:environment_initialization.obj
 0001:00004dc8       _execute_onexit_table      0000000180005dc8 f   libucrt:onexit.obj
 0001:00004e04       _initialize_onexit_table   0000000180005e04 f   libucrt:onexit.obj
 0001:00004e64       __acrt_uninitialize_command_line 0000000180005e64 f   libucrt:argv_data.obj
 0001:00004f5c       __acrt_initialize          0000000180005f5c f   libucrt:initialization.obj
 0001:00004f70       __acrt_thread_attach       0000000180005f70 f   libucrt:initialization.obj
 0001:00004f84       __acrt_thread_detach       0000000180005f84 f   libucrt:initialization.obj
 0001:00004f94       __acrt_uninitialize        0000000180005f94 f   libucrt:initialization.obj
 0001:00004fcc       __acrt_uninitialize_critical 0000000180005fcc f   libucrt:initialization.obj
 0001:00004fdc       terminate                  0000000180005fdc f   libucrt:terminate.obj
 0001:00004ffc       strcpy_s                   0000000180005ffc f   libucrt:strcpy_s.obj
 0001:00005270       ??$ensure_buffer_is_big_enough@D@formatting_buffer@__crt_stdio_output@@QEAA_N_K@Z 0000000180006270 f i libucrt:output.obj
 0001:00005318       ??$ensure_buffer_is_big_enough@_W@formatting_buffer@__crt_stdio_output@@QEAA_N_K@Z 0000000180006318 f i libucrt:output.obj
 0001:000053c4       ??$is_wide_character_specifier@_W@__crt_stdio_output@@YA_N_K_WW4length_modifier@0@@Z 00000001800063c4 f i libucrt:output.obj
 0001:00005404       ??$type_case_integer_parse_into_buffer@I@?$output_processor@_WV?$string_output_adapter@_W@__crt_stdio_output@@V?$standard_base@_WV?$string_output_adapter@_W@__crt_stdio_output@@@2@@__crt_stdio_output@@AEAAXII_N@Z 0000000180006404 f i libucrt:output.obj
 0001:00005404       ??$type_case_integer_parse_into_buffer@I@?$output_processor@_WV?$stream_output_adapter@_W@__crt_stdio_output@@V?$standard_base@_WV?$stream_output_adapter@_W@__crt_stdio_output@@@2@@__crt_stdio_output@@AEAAXII_N@Z 0000000180006404 f i libucrt:output.obj
 0001:000054a8       ??$type_case_integer_parse_into_buffer@_K@?$output_processor@_WV?$string_output_adapter@_W@__crt_stdio_output@@V?$standard_base@_WV?$string_output_adapter@_W@__crt_stdio_output@@@2@@__crt_stdio_output@@AEAAX_KI_N@Z 00000001800064a8 f i libucrt:output.obj
 0001:000054a8       ??$type_case_integer_parse_into_buffer@_K@?$output_processor@_WV?$stream_output_adapter@_W@__crt_stdio_output@@V?$standard_base@_WV?$stream_output_adapter@_W@__crt_stdio_output@@@2@@__crt_stdio_output@@AEAAX_KI_N@Z 00000001800064a8 f i libucrt:output.obj
 0001:0000554c       ??$write_multiple_characters@V?$stream_output_adapter@_W@__crt_stdio_output@@D@__crt_stdio_output@@YAXAEBV?$stream_output_adapter@_W@0@DHQEAH@Z 000000018000654c f i libucrt:output.obj
 0001:000055e0       ??$write_multiple_characters@V?$string_output_adapter@_W@__crt_stdio_output@@D@__crt_stdio_output@@YAXAEBV?$string_output_adapter@_W@0@DHQEAH@Z 00000001800065e0 f i libucrt:output.obj
 0001:00005790       ?crop_zeroes@__crt_stdio_output@@YAXPEADQEAU__crt_locale_pointers@@@Z 0000000180006790 f i libucrt:output.obj
 0001:000057fc       ?force_decimal_point@__crt_stdio_output@@YAXPEADQEAU__crt_locale_pointers@@@Z 00000001800067fc f i libucrt:output.obj
 0001:0000586c       ?parse_int_from_format_string@?$output_processor@_WV?$string_output_adapter@_W@__crt_stdio_output@@V?$standard_base@_WV?$string_output_adapter@_W@__crt_stdio_output@@@2@@__crt_stdio_output@@AEAA_NQEAH@Z 000000018000686c f i libucrt:output.obj
 0001:0000586c       ?parse_int_from_format_string@?$output_processor@_WV?$stream_output_adapter@_W@__crt_stdio_output@@V?$standard_base@_WV?$stream_output_adapter@_W@__crt_stdio_output@@@2@@__crt_stdio_output@@AEAA_NQEAH@Z 000000018000686c f i libucrt:output.obj
 0001:00005910       ?process@?$output_processor@_WV?$stream_output_adapter@_W@__crt_stdio_output@@V?$standard_base@_WV?$stream_output_adapter@_W@__crt_stdio_output@@@2@@__crt_stdio_output@@QEAAHXZ 0000000180006910 f i libucrt:output.obj
 0001:00005b7c       ?process@?$output_processor@_WV?$string_output_adapter@_W@__crt_stdio_output@@V?$standard_base@_WV?$string_output_adapter@_W@__crt_stdio_output@@@2@@__crt_stdio_output@@QEAAHXZ 0000000180006b7c f i libucrt:output.obj
 0001:00005df8       ?state_case_size@?$output_processor@_WV?$stream_output_adapter@_W@__crt_stdio_output@@V?$standard_base@_WV?$stream_output_adapter@_W@__crt_stdio_output@@@2@@__crt_stdio_output@@AEAA_NXZ 0000000180006df8 f i libucrt:output.obj
 0001:00005f90       ?state_case_size@?$output_processor@_WV?$string_output_adapter@_W@__crt_stdio_output@@V?$standard_base@_WV?$string_output_adapter@_W@__crt_stdio_output@@@2@@__crt_stdio_output@@AEAA_NXZ 0000000180006f90 f i libucrt:output.obj
 0001:00006128       ?state_case_type@?$output_processor@_WV?$stream_output_adapter@_W@__crt_stdio_output@@V?$standard_base@_WV?$stream_output_adapter@_W@__crt_stdio_output@@@2@@__crt_stdio_output@@AEAA_NXZ 0000000180007128 f i libucrt:output.obj
 0001:00006408       ?state_case_type@?$output_processor@_WV?$string_output_adapter@_W@__crt_stdio_output@@V?$standard_base@_WV?$string_output_adapter@_W@__crt_stdio_output@@@2@@__crt_stdio_output@@AEAA_NXZ 0000000180007408 f i libucrt:output.obj
 0001:000066d4       ?type_case_Z@?$output_processor@_WV?$string_output_adapter@_W@__crt_stdio_output@@V?$standard_base@_WV?$string_output_adapter@_W@__crt_stdio_output@@@2@@__crt_stdio_output@@AEAA_NXZ 00000001800076d4 f i libucrt:output.obj
 0001:000066d4       ?type_case_Z@?$output_processor@_WV?$stream_output_adapter@_W@__crt_stdio_output@@V?$standard_base@_WV?$stream_output_adapter@_W@__crt_stdio_output@@@2@@__crt_stdio_output@@AEAA_NXZ 00000001800076d4 f i libucrt:output.obj
 0001:00006750       ?type_case_a@?$output_processor@_WV?$stream_output_adapter@_W@__crt_stdio_output@@V?$standard_base@_WV?$stream_output_adapter@_W@__crt_stdio_output@@@2@@__crt_stdio_output@@AEAA_NXZ 0000000180007750 f i libucrt:output.obj
 0001:00006750       ?type_case_a@?$output_processor@_WV?$string_output_adapter@_W@__crt_stdio_output@@V?$standard_base@_WV?$string_output_adapter@_W@__crt_stdio_output@@@2@@__crt_stdio_output@@AEAA_NXZ 0000000180007750 f i libucrt:output.obj
 0001:00006930       ?type_case_c_tchar@?$output_processor@_WV?$string_output_adapter@_W@__crt_stdio_output@@V?$standard_base@_WV?$string_output_adapter@_W@__crt_stdio_output@@@2@@__crt_stdio_output@@AEAA_N_W@Z 0000000180007930 f i libucrt:output.obj
 0001:00006930       ?type_case_c_tchar@?$output_processor@_WV?$stream_output_adapter@_W@__crt_stdio_output@@V?$standard_base@_WV?$stream_output_adapter@_W@__crt_stdio_output@@@2@@__crt_stdio_output@@AEAA_N_W@Z 0000000180007930 f i libucrt:output.obj
 0001:000069d8       ?type_case_integer@?$output_processor@_WV?$stream_output_adapter@_W@__crt_stdio_output@@V?$standard_base@_WV?$stream_output_adapter@_W@__crt_stdio_output@@@2@@__crt_stdio_output@@AEAA_NI_N@Z 00000001800079d8 f i libucrt:output.obj
 0001:000069d8       ?type_case_integer@?$output_processor@_WV?$string_output_adapter@_W@__crt_stdio_output@@V?$standard_base@_WV?$string_output_adapter@_W@__crt_stdio_output@@@2@@__crt_stdio_output@@AEAA_NI_N@Z 00000001800079d8 f i libucrt:output.obj
 0001:00006ba4       ?type_case_n@?$output_processor@_WV?$stream_output_adapter@_W@__crt_stdio_output@@V?$standard_base@_WV?$stream_output_adapter@_W@__crt_stdio_output@@@2@@__crt_stdio_output@@AEAA_NXZ 0000000180007ba4 f i libucrt:output.obj
 0001:00006ba4       ?type_case_n@?$output_processor@_WV?$string_output_adapter@_W@__crt_stdio_output@@V?$standard_base@_WV?$string_output_adapter@_W@__crt_stdio_output@@@2@@__crt_stdio_output@@AEAA_NXZ 0000000180007ba4 f i libucrt:output.obj
 0001:00006c80       ?type_case_s@?$output_processor@_WV?$stream_output_adapter@_W@__crt_stdio_output@@V?$standard_base@_WV?$stream_output_adapter@_W@__crt_stdio_output@@@2@@__crt_stdio_output@@AEAA_NXZ 0000000180007c80 f i libucrt:output.obj
 0001:00006c80       ?type_case_s@?$output_processor@_WV?$string_output_adapter@_W@__crt_stdio_output@@V?$standard_base@_WV?$string_output_adapter@_W@__crt_stdio_output@@@2@@__crt_stdio_output@@AEAA_NXZ 0000000180007c80 f i libucrt:output.obj
 0001:00006d48       ?write_stored_string_tchar@?$output_processor@_WV?$stream_output_adapter@_W@__crt_stdio_output@@V?$standard_base@_WV?$stream_output_adapter@_W@__crt_stdio_output@@@2@@__crt_stdio_output@@AEAA_N_W@Z 0000000180007d48 f i libucrt:output.obj
 0001:00006e50       ?write_stored_string_tchar@?$output_processor@_WV?$string_output_adapter@_W@__crt_stdio_output@@V?$standard_base@_WV?$string_output_adapter@_W@__crt_stdio_output@@@2@@__crt_stdio_output@@AEAA_N_W@Z 0000000180007e50 f i libucrt:output.obj
 0001:00006f3c       ?write_string@?$string_output_adapter@_W@__crt_stdio_output@@QEBAXQEB_WHQEAHAEAV__crt_deferred_errno_cache@@@Z 0000000180007f3c f i libucrt:output.obj
 0001:00006fe4       ?write_string_impl@?$output_adapter_common@_WV?$stream_output_adapter@_W@__crt_stdio_output@@@__crt_stdio_output@@IEBAXQEB_WHQEAHAEAV__crt_deferred_errno_cache@@@Z 0000000180007fe4 f i libucrt:output.obj
 0001:000070e8       __stdio_common_vfwprintf   00000001800080e8 f   libucrt:output.obj
 0001:00007174       __stdio_common_vswprintf   0000000180008174 f   libucrt:output.obj
 0001:0000717c       ??$parse_integer@KV?$c_string_character_source@_W@__crt_strtox@@@__crt_strtox@@YAKQEAU__crt_locale_pointers@@V?$c_string_character_source@_W@0@H_N@Z 000000018000817c f i libucrt:atox.obj
 0001:00007840       strncmp                    0000000180008840 f   libucrt:strncmp.obj
 0001:000078c0       abort                      00000001800088c0 f   libucrt:abort.obj
 0001:00007918       calloc                     0000000180008918 f   libucrt:calloc.obj
 0001:00007920       wcsncmp                    0000000180008920 f   libucrt:wcsncmp.obj
 0001:0000794c       __acrt_call_reportfault    000000018000894c f   libucrt:invalid_parameter.obj
 0001:00007aa8       __acrt_initialize_invalid_parameter_handler 0000000180008aa8 f   libucrt:invalid_parameter.obj
 0001:00007ab0       _invalid_parameter         0000000180008ab0 f   libucrt:invalid_parameter.obj
 0001:00007b60       _invalid_parameter_noinfo  0000000180008b60 f   libucrt:invalid_parameter.obj
 0001:00007b80       _invoke_watson             0000000180008b80 f   libucrt:invalid_parameter.obj
 0001:00007bc8       _query_app_type            0000000180008bc8 f   libucrt:report_runtime_error.obj
 0001:00007bd0       __acrt_errno_from_os_error 0000000180008bd0 f   libucrt:errno.obj
 0001:00007c18       __acrt_errno_map_os_error  0000000180008c18 f   libucrt:errno.obj
 0001:00007c68       __doserrno                 0000000180008c68 f   libucrt:errno.obj
 0001:00007c88       _errno                     0000000180008c88 f   libucrt:errno.obj
 0001:00007de8       _itow_s                    0000000180008de8 f   libucrt:xtoa.obj
 0001:00007e08       _set_error_mode            0000000180008e08 f   libucrt:set_error_mode.obj
 0001:00007e48       wcscat_s                   0000000180008e48 f   libucrt:wcscat_s.obj
 0001:00007ec8       wcscpy_s                   0000000180008ec8 f   libucrt:wcscpy_s.obj
 0001:00007f30       wcsncat_s                  0000000180008f30 f   libucrt:wcsncat_s.obj
 0001:00008030       ??$__acrt_wcs_to_mbs_cp@U__crt_win32_buffer_no_resizing@@@@YAHQEB_WAEAV?$__crt_win32_buffer@DU__crt_win32_buffer_no_resizing@@@@I@Z 0000000180009030 f i libucrt:getmodulefilenamea.obj
 0001:00008144       __acrt_GetModuleFileNameA  0000000180009144 f   libucrt:getmodulefilenamea.obj
 0001:00008264       __acrt_show_wide_message_box 0000000180009264 f   libucrt:crtmbox.obj
 0001:00008308       __acrt_initialize_stdio    0000000180009308 f   libucrt:_file.obj
 0001:00008428       __acrt_iob_func            0000000180009428 f   libucrt:_file.obj
 0001:0000843c       __acrt_uninitialize_stdio  000000018000943c f   libucrt:_file.obj
 0001:00008498       _lock_file                 0000000180009498 f   libucrt:_file.obj
 0001:000084a4       _unlock_file               00000001800094a4 f   libucrt:_file.obj
 0001:000086cc       __acrt_stdio_flush_nolock  00000001800096cc f   libucrt:fflush.obj
 0001:00008748       _fflush_nolock             0000000180009748 f   libucrt:fflush.obj
 0001:00008794       _flushall                  0000000180009794 f   libucrt:fflush.obj
 0001:0000879c       fflush                     000000018000979c f   libucrt:fflush.obj
 0001:00008924       setvbuf                    0000000180009924 f   libucrt:setvbuf.obj
 0001:00008a08       __acrt_get_sigabrt_handler 0000000180009a08 f   libucrt:signal.obj
 0001:00008a38       __acrt_initialize_signal_handlers 0000000180009a38 f   libucrt:signal.obj
 0001:00008a58       raise                      0000000180009a58 f   libucrt:signal.obj
 0001:00008d24       _tolower_l                 0000000180009d24 f   libucrt:tolower_toupper.obj
 0001:00008e64       tolower                    0000000180009e64 f   libucrt:tolower_toupper.obj
 0001:00009208       __acrt_freeptd             000000018000a208 f   libucrt:per_thread_data.obj
 0001:0000924c       __acrt_getptd              000000018000a24c f   libucrt:per_thread_data.obj
 0001:00009320       __acrt_getptd_head         000000018000a320 f   libucrt:per_thread_data.obj
 0001:000093c8       __acrt_getptd_noexit       000000018000a3c8 f   libucrt:per_thread_data.obj
 0001:00009494       __acrt_initialize_ptd      000000018000a494 f   libucrt:per_thread_data.obj
 0001:000094d0       __acrt_uninitialize_ptd    000000018000a4d0 f   libucrt:per_thread_data.obj
 0001:000094f4       __acrt_update_locale_info  000000018000a4f4 f   libucrt:locale_update.obj
 0001:00009528       __acrt_update_multibyte_info 000000018000a528 f   libucrt:locale_update.obj
 0001:000095cc       __acrt_set_locale_changed  000000018000a5cc f   libucrt:wsetlocale.obj
 0001:000095d8       __acrt_uninitialize_locale 000000018000a5d8 f   libucrt:wsetlocale.obj
 0001:00009608       __acrt_initialize_locks    000000018000a608 f   libucrt:locks.obj
 0001:00009650       __acrt_lock                000000018000a650 f   libucrt:locks.obj
 0001:0000966c       __acrt_uninitialize_locks  000000018000a66c f   libucrt:locks.obj
 0001:000096a4       __acrt_unlock              000000018000a6a4 f   libucrt:locks.obj
 0001:000096c0       _malloc_base               000000018000a6c0 f   libucrt:malloc_base.obj
 0001:00009720       _free_base                 000000018000a720 f   libucrt:free_base.obj
 0001:00009760       __acrt_get_developer_information_policy 000000018000a760 f   libucrt:win_policies.obj
 0001:000097b4       __acrt_get_process_end_policy 000000018000a7b4 f   libucrt:win_policies.obj
 0001:000097f0       __acrt_get_windowing_model_policy 000000018000a7f0 f   libucrt:win_policies.obj
 0001:0000985c       _calloc_base               000000018000a85c f   libucrt:calloc_base.obj
 0001:000098e8       ??$__acrt_mbs_to_wcs_cp@U__crt_win32_buffer_internal_dynamic_resizing@@@@YAHQEBDAEAV?$__crt_win32_buffer@_WU__crt_win32_buffer_internal_dynamic_resizing@@@@I@Z 000000018000a8e8 f i libucrt:argv_wildcards.obj
 0001:00009a60       ??$__acrt_wcs_to_mbs_cp@U__crt_win32_buffer_internal_dynamic_resizing@@@@YAHQEB_WAEAV?$__crt_win32_buffer@DU__crt_win32_buffer_internal_dynamic_resizing@@@@I@Z 000000018000aa60 f i libucrt:argv_wildcards.obj
 0001:0000a290       __acrt_expand_narrow_argv_wildcards 000000018000b290 f   libucrt:argv_wildcards.obj
 0001:0000a9c4       __acrt_initialize_multibyte 000000018000b9c4 f   libucrt:mbctype.obj
 0001:0000aa24       __acrt_update_thread_multibyte_data 000000018000ba24 f   libucrt:mbctype.obj
 0001:0000aa40       _setmbcp_nolock            000000018000ba40 f   libucrt:mbctype.obj
 0001:0000ad74       _ismbblead                 000000018000bd74 f   libucrt:ismbbyte.obj
 0001:0000ad88       __acrt_initialize_command_line 000000018000bd88 f   libucrt:argv_data.obj
 0001:0000adb0       __acrt_MultiByteToWideChar 000000018000bdb0 f   libucrt:multibytetowidechar.obj
 0001:0000ae0c       __acrt_WideCharToMultiByte 000000018000be0c f   libucrt:widechartomultibyte.obj
 0001:0000aea4       __dcrt_get_narrow_environment_from_os 000000018000bea4 f   libucrt:get_environment_from_os.obj
 0001:0000afa8       _recalloc_base             000000018000bfa8 f   libucrt:recalloc.obj
 0001:0000b218       __acrt_AppPolicyGetProcessTerminationMethodInternal 000000018000c218 f   libucrt:winapi_thunks.obj
 0001:0000b268       __acrt_AppPolicyGetShowDeveloperDiagnosticInternal 000000018000c268 f   libucrt:winapi_thunks.obj
 0001:0000b2b8       __acrt_AppPolicyGetWindowingModelInternal 000000018000c2b8 f   libucrt:winapi_thunks.obj
 0001:0000b308       __acrt_AreFileApisANSI     000000018000c308 f   libucrt:winapi_thunks.obj
 0001:0000b344       __acrt_FlsAlloc            000000018000c344 f   libucrt:winapi_thunks.obj
 0001:0000b38c       __acrt_FlsFree             000000018000c38c f   libucrt:winapi_thunks.obj
 0001:0000b3d4       __acrt_FlsGetValue         000000018000c3d4 f   libucrt:winapi_thunks.obj
 0001:0000b41c       __acrt_FlsSetValue         000000018000c41c f   libucrt:winapi_thunks.obj
 0001:0000b470       __acrt_InitializeCriticalSectionEx 000000018000c470 f   libucrt:winapi_thunks.obj
 0001:0000b4d4       __acrt_LCMapStringEx       000000018000c4d4 f   libucrt:winapi_thunks.obj
 0001:0000b5b0       __acrt_LocaleNameToLCID    000000018000c5b0 f   libucrt:winapi_thunks.obj
 0001:0000b600       __acrt_MessageBoxW         000000018000c600 f   libucrt:winapi_thunks.obj
 0001:0000b674       __acrt_can_show_message_box 000000018000c674 f   libucrt:winapi_thunks.obj
 0001:0000b6e4       __acrt_get_parent_window   000000018000c6e4 f   libucrt:winapi_thunks.obj
 0001:0000b75c       __acrt_initialize_winapi_thunks 000000018000c75c f   libucrt:winapi_thunks.obj
 0001:0000b790       __acrt_is_interactive      000000018000c790 f   libucrt:winapi_thunks.obj
 0001:0000b858       __acrt_uninitialize_winapi_thunks 000000018000c858 f   libucrt:winapi_thunks.obj
 0001:0000b89c       __acrt_initialize_heap     000000018000c89c f   libucrt:heap_handle.obj
 0001:0000b8b8       __acrt_uninitialize_heap   000000018000c8b8 f   libucrt:heap_handle.obj
 0001:0000bac0       __acrt_initialize_lowio    000000018000cac0 f   libucrt:ioinit.obj
 0001:0000bafc       __acrt_uninitialize_lowio  000000018000cafc f   libucrt:ioinit.obj
 0001:0000bb3c       __acrt_execute_initializers 000000018000cb3c f   libucrt:shared_initialization.obj
 0001:0000bbbc       __acrt_execute_uninitializers 000000018000cbbc f   libucrt:shared_initialization.obj
 0001:0000bbf8       __acrt_has_user_matherr    000000018000cbf8 f   libucrt:matherr.obj
 0001:0000bc18       __acrt_initialize_user_matherr 000000018000cc18 f   libucrt:matherr.obj
 0001:0000bc20       __acrt_invoke_user_matherr 000000018000cc20 f   libucrt:matherr.obj
 0001:0000bc50       __acrt_stdio_begin_temporary_buffering_nolock 000000018000cc50 f   libucrt:_sftbuf.obj
 0001:0000bd20       __acrt_stdio_end_temporary_buffering_nolock 000000018000cd20 f   libucrt:_sftbuf.obj
 0001:0000bd5c       isdigit                    000000018000cd5c f i libucrt:_ctype.obj
 0001:0000bdf0       wcstol                     000000018000cdf0 f   libucrt:strtox.obj
 0001:0000be1c       _mbtowc_l                  000000018000ce1c f   libucrt:mbtowc.obj
 0001:0000bf98       mbtowc                     000000018000cf98 f   libucrt:mbtowc.obj
 0001:0000bfa0       _wctomb_s_l                000000018000cfa0 f   libucrt:wctomb.obj
 0001:0000c140       wctomb_s                   000000018000d140 f   libucrt:wctomb.obj
 0001:0000c154       wcsnlen                    000000018000d154 f   libucrt:strnlen.obj
 0001:0000cd00       __acrt_fp_format           000000018000dd00 f   libucrt:cvt.obj
 0001:0000cf88       _fputwc_nolock             000000018000df88 f   libucrt:fputwc.obj
 0001:0000d104       _fileno                    000000018000e104 f   libucrt:fileno.obj
 0001:0000d12c       _fputc_nolock              000000018000e12c f   libucrt:fputc.obj
 0001:0000d144       _get_printf_count_output   000000018000e144 f   libucrt:printf_count_output.obj
 0001:0000d15c       __pctype_func              000000018000e15c f   libucrt:ctype.obj
 0001:0000d18c       iswctype                   000000018000e18c f   libucrt:iswctype.obj
 0001:0000d1fc       _isctype_l                 000000018000e1fc f   libucrt:isctype.obj
 0001:0000d30c       _fcloseall                 000000018000e30c f   libucrt:closeall.obj
 0001:0000d3c0       __acrt_stdio_free_buffer_nolock 000000018000e3c0 f   libucrt:_freebuf.obj
 0001:0000d48c       _commit                    000000018000e48c f   libucrt:commit.obj
 0001:0000dd8c       _write                     000000018000ed8c f   libucrt:write.obj
 0001:0000de78       _write_nolock              000000018000ee78 f   libucrt:write.obj
 0001:0000e154       _isleadbyte_l              000000018000f154 f i libucrt:_wctype.obj
 0001:0000e4b8       __acrt_LCMapStringA        000000018000f4b8 f   libucrt:lcmapstringa.obj
 0001:0000e550       __acrt_add_locale_ref      000000018000f550 f   libucrt:locale_refcounting.obj
 0001:0000e5dc       __acrt_free_locale         000000018000f5dc f   libucrt:locale_refcounting.obj
 0001:0000e754       __acrt_locale_add_lc_time_reference 000000018000f754 f   libucrt:locale_refcounting.obj
 0001:0000e77c       __acrt_locale_free_lc_time_if_unreferenced 000000018000f77c f   libucrt:locale_refcounting.obj
 0001:0000e7b4       __acrt_locale_release_lc_time_reference 000000018000f7b4 f   libucrt:locale_refcounting.obj
 0001:0000e7dc       __acrt_release_locale_ref  000000018000f7dc f   libucrt:locale_refcounting.obj
 0001:0000e884       __acrt_update_thread_locale_data 000000018000f884 f   libucrt:locale_refcounting.obj
 0001:0000e8f4       _updatetlocinfoEx_nolock   000000018000f8f4 f   libucrt:locale_refcounting.obj
 0001:0000e95c       __acrt_locale_free_monetary 000000018000f95c f   libucrt:initmon.obj
 0001:0000ea68       __acrt_locale_free_numeric 000000018000fa68 f   libucrt:initnum.obj
 0001:0000eb2c       __acrt_locale_free_time    000000018000fb2c f   libucrt:inittime.obj
 0001:0000ec34       __acrt_GetStringTypeA      000000018000fc34 f   libucrt:getstringtypea.obj
 0001:0000edc4       _query_new_mode            000000018000fdc4 f   libucrt:new_mode.obj
 0001:0000edd0       qsort                      000000018000fdd0 f   libucrt:qsort.obj
 0001:0000f190       strncpy_s                  0000000180010190 f   libucrt:strncpy_s.obj
 0001:0000f310       strpbrk                    0000000180010310 f   libucrt:strpbrk.obj
 0001:0000f6f0       _mbsdec                    00000001800106f0 f   libucrt:mbsdec.obj
 0001:0000f6f8       _mbsdec_l                  00000001800106f8 f   libucrt:mbsdec.obj
 0001:0000f7a4       _msize_base                00000001800107a4 f   libucrt:msize.obj
 0001:0000f7e0       _realloc_base              00000001800107e0 f   libucrt:realloc_base.obj
 0001:0000f944       __acrt_DownlevelLocaleNameToLCID 0000000180010944 f   libucrt:lcidtoname_downlevel.obj
 0001:0000f978       __acrt_lowio_create_handle_array 0000000180010978 f   libucrt:osfinfo.obj
 0001:0000fa20       __acrt_lowio_destroy_handle_array 0000000180010a20 f   libucrt:osfinfo.obj
 0001:0000fa70       __acrt_lowio_ensure_fh_exists 0000000180010a70 f   libucrt:osfinfo.obj
 0001:0000fb18       __acrt_lowio_lock_fh       0000000180010b18 f   libucrt:osfinfo.obj
 0001:0000fb40       __acrt_lowio_unlock_fh     0000000180010b40 f   libucrt:osfinfo.obj
 0001:0000fb68       _free_osfhnd               0000000180010b68 f   libucrt:osfinfo.obj
 0001:0000fc24       _get_osfhandle             0000000180010c24 f   libucrt:osfinfo.obj
 0001:0000fc9c       _isatty                    0000000180010c9c f   libucrt:isatty.obj
 0001:0000fcfc       ?__mbrtowc_utf8@__crt_mbstring@@YA_KPEA_WPEBD_KPEAU_Mbstatet@@@Z 0000000180010cfc f   libucrt:mbrtowc.obj
 0001:0000fd38       ?__mbsrtowcs_utf8@__crt_mbstring@@YA_KPEA_WPEAPEBD_KPEAU_Mbstatet@@@Z 0000000180010d38 f   libucrt:mbrtowc.obj
 0001:0000feb0       ?__c32rtomb_utf8@__crt_mbstring@@YA_KPEAD_UPEAU_Mbstatet@@@Z 0000000180010eb0 f   libucrt:c32rtomb.obj
 0001:0000ff68       __acrt_fp_strflt_to_string 0000000180010f68 f   libucrt:_fptostr.obj
 0001:00010050       ?divide@__crt_strtox@@YA_KAEAUbig_integer@1@AEBU21@@Z 0000000180011050 f i libucrt:cfout.obj
 0001:0001047c       __acrt_fltout              000000018001147c f   libucrt:cfout.obj
 0001:0001197c       __acrt_stdio_flush_and_write_narrow_nolock 000000018001297c f   libucrt:_flsbuf.obj
 0001:00011a68       __acrt_stdio_flush_and_write_wide_nolock 0000000180012a68 f   libucrt:_flsbuf.obj
 0001:00011b54       __acrt_GetStringTypeW      0000000180012b54 f   libucrt:getstringtypew.obj
 0001:00011b5c       _fclose_nolock             0000000180012b5c f   libucrt:fclose.obj
 0001:00011be0       fclose                     0000000180012be0 f   libucrt:fclose.obj
 0001:00011dd0       _lseeki64                  0000000180012dd0 f   libucrt:lseek.obj
 0001:00011dd8       _lseeki64_nolock           0000000180012dd8 f   libucrt:lseek.obj
 0001:00011de0       _putwch_nolock             0000000180012de0 f   libucrt:putwch.obj
 0001:00011e1c       __strncnt                  0000000180012e1c f   libucrt:strncnt.obj
 0001:00011e34       ?__mbrtoc32_utf8@__crt_mbstring@@YA_KPEA_UPEBD_KPEAU_Mbstatet@@@Z 0000000180012e34 f   libucrt:mbrtoc32.obj
 0001:00012010       fegetenv                   0000000180013010 f   libucrt:fegetenv.obj
 0001:00012030       fesetenv                   0000000180013030 f   libucrt:fesetenv.obj
 0001:00012080       feholdexcept               0000000180013080 f   libucrt:feholdexcept.obj
 0001:000120d0       ceil                       00000001800130d0 f   libucrt:ceil.obj
 0001:000121a0       log10                      00000001800131a0 f   libucrt:log10.obj
 0001:0001274c       __acrt_stdio_allocate_buffer_nolock 000000018001374c f   libucrt:_getbuf.obj
 0001:00012828       _close                     0000000180013828 f   libucrt:close.obj
 0001:000128cc       _close_nolock              00000001800138cc f   libucrt:close.obj
 0001:0001298c       ?__acrt_stdio_free_stream@@YAXV__crt_stdio_stream@@@Z 000000018001398c f   libucrt:stream.obj
 0001:000129a8       __dcrt_lowio_ensure_console_output_initialized 00000001800139a8 f   libucrt:initcon.obj
 0001:000129fc       __dcrt_terminate_console_output 00000001800139fc f   libucrt:initcon.obj
 0001:00012a18       __dcrt_write_console       0000000180013a18 f   libucrt:initcon.obj
 0001:00012ad8       __acrt_fenv_get_control    0000000180013ad8 f   libucrt:_fenvutils.obj
 0001:00012bcc       __acrt_fenv_get_status     0000000180013bcc f   libucrt:_fenvutils.obj
 0001:00012c20       __acrt_fenv_set_control    0000000180013c20 f   libucrt:_fenvutils.obj
 0001:00012d68       __acrt_fenv_set_status     0000000180013d68 f   libucrt:_fenvutils.obj
 0001:00012dec       _clearfp                   0000000180013dec f   libucrt:ieee.obj
 0001:00012f80       _handle_error              0000000180013f80 f   libucrt:libm_error.obj
 0001:000130a8       _handle_nan                00000001800140a8 f   libucrt:libm_error.obj
 0001:000130d0       __acrt_initialize_fma3     00000001800140d0 f   libucrt:fma3_available.obj
 0001:00013140       _log10_special             0000000180014140 f   libucrt:log_special.obj
 0001:00013210       _get_fpsr                  0000000180014210 f   libucrt:fpsr.obj
 0001:00013220       _set_fpsr                  0000000180014220 f   libucrt:fpsr.obj
 0001:0001322a       _fclrf                     000000018001422a f   libucrt:fpsr.obj
 0001:0001323e       _frnd                      000000018001423e f   libucrt:fpsr.obj
 0001:00013260       _raise_exc                 0000000180014260 f   libucrt:fpexcept.obj
 0001:00013288       _raise_exc_ex              0000000180014288 f   libucrt:fpexcept.obj
 0001:00013598       _set_errno_from_matherr    0000000180014598 f   libucrt:fpexcept.obj
 0001:000135c8       _clrfp                     00000001800145c8 f   libucrt:fpctrl.obj
 0001:000135e8       _ctrlfp                    00000001800145e8 f   libucrt:fpctrl.obj
 0001:00013664       _set_statfp                0000000180014664 f   libucrt:fpctrl.obj
 0001:00013684       _statfp                    0000000180014684 f   libucrt:fpctrl.obj
 0001:00013695       IsProcessorFeaturePresent  0000000180014695 f   kernel32:KERNEL32.dll
 0001:0001369c       ?DloadAcquireSectionWriteAccess@@YAXXZ 000000018001469c f i DelayImp:delayhlp.obj
 0001:00013748       ?DloadGetSRWLockFunctionPointers@@YAEXZ 0000000180014748 f i DelayImp:delayhlp.obj
 0001:000137e4       ?DloadMakePermanentImageCommit@@YAXPEAX_K@Z 00000001800147e4 f i DelayImp:delayhlp.obj
 0001:0001387c       ?DloadObtainSection@@YAPEAXPEAK0@Z 000000018001487c f i DelayImp:delayhlp.obj
 0001:00013918       ?DloadProtectSection@@YAXKPEAK@Z 0000000180014918 f i DelayImp:delayhlp.obj
 0001:000139a8       ?DloadReleaseSectionWriteAccess@@YAXXZ 00000001800149a8 f i DelayImp:delayhlp.obj
 0001:00013a3c       __delayLoadHelper2         0000000180014a3c f   DelayImp:delayhlp.obj
 0001:00013d00       _FindPESection             0000000180014d00 f   LIBCMT:pesect.obj
 0001:00013d50       _IsNonwritableInCurrentImage 0000000180014d50 f   LIBCMT:pesect.obj
 0001:00013da0       _ValidateImageBase         0000000180014da0 f   LIBCMT:pesect.obj
 0001:00013dd0       __GSHandlerCheck           0000000180014dd0 f   LIBCMT:gshandler.obj
 0001:00013df0       __GSHandlerCheckCommon     0000000180014df0 f   LIBCMT:gshandler.obj
 0001:00013e60       __chkstk                   0000000180014e60 f   LIBCMT:chkstk.obj
 0001:00013e60       _alloca_probe              0000000180014e60 f   LIBCMT:chkstk.obj
 0001:00013ed0       memcmp                     0000000180014ed0 f   libvcruntime:memcmp.obj
 0001:00013f98       strrchr                    0000000180014f98 f   libvcruntime:strrchr.obj
 0001:00014100       _guard_dispatch_icall_nop  0000000180015100 f   LIBCMT:guard_dispatch.obj
 0002:00000000       __imp_GetModuleHandleA     0000000180016000     kernel32:KERNEL32.dll
 0002:00000008       __imp_LoadLibraryExA       0000000180016008     kernel32:KERNEL32.dll
 0002:00000010       __imp_RtlCaptureContext    0000000180016010     kernel32:KERNEL32.dll
 0002:00000018       __imp_RtlLookupFunctionEntry 0000000180016018     kernel32:KERNEL32.dll
 0002:00000020       __imp_RtlVirtualUnwind     0000000180016020     kernel32:KERNEL32.dll
 0002:00000028       __imp_UnhandledExceptionFilter 0000000180016028     kernel32:KERNEL32.dll
 0002:00000030       __imp_SetUnhandledExceptionFilter 0000000180016030     kernel32:KERNEL32.dll
 0002:00000038       __imp_GetCurrentProcess    0000000180016038     kernel32:KERNEL32.dll
 0002:00000040       __imp_TerminateProcess     0000000180016040     kernel32:KERNEL32.dll
 0002:00000048       __imp_IsProcessorFeaturePresent 0000000180016048     kernel32:KERNEL32.dll
 0002:00000050       __imp_QueryPerformanceCounter 0000000180016050     kernel32:KERNEL32.dll
 0002:00000058       __imp_GetCurrentProcessId  0000000180016058     kernel32:KERNEL32.dll
 0002:00000060       __imp_GetCurrentThreadId   0000000180016060     kernel32:KERNEL32.dll
 0002:00000068       __imp_GetSystemTimeAsFileTime 0000000180016068     kernel32:KERNEL32.dll
 0002:00000070       __imp_InitializeSListHead  0000000180016070     kernel32:KERNEL32.dll
 0002:00000078       __imp_IsDebuggerPresent    0000000180016078     kernel32:KERNEL32.dll
 0002:00000080       __imp_GetStartupInfoW      0000000180016080     kernel32:KERNEL32.dll
 0002:00000088       __imp_GetModuleHandleW     0000000180016088     kernel32:KERNEL32.dll
 0002:00000090       __imp_RtlUnwindEx          0000000180016090     kernel32:KERNEL32.dll
 0002:00000098       __imp_RtlPcToFileHeader    0000000180016098     kernel32:KERNEL32.dll
 0002:000000a0       __imp_RaiseException       00000001800160a0     kernel32:KERNEL32.dll
 0002:000000a8       __imp_InterlockedFlushSList 00000001800160a8     kernel32:KERNEL32.dll
 0002:000000b0       __imp_GetLastError         00000001800160b0     kernel32:KERNEL32.dll
 0002:000000b8       __imp_SetLastError         00000001800160b8     kernel32:KERNEL32.dll
 0002:000000c0       __imp_EnterCriticalSection 00000001800160c0     kernel32:KERNEL32.dll
 0002:000000c8       __imp_LeaveCriticalSection 00000001800160c8     kernel32:KERNEL32.dll
 0002:000000d0       __imp_DeleteCriticalSection 00000001800160d0     kernel32:KERNEL32.dll
 0002:000000d8       __imp_InitializeCriticalSectionAndSpinCount 00000001800160d8     kernel32:KERNEL32.dll
 0002:000000e0       __imp_TlsAlloc             00000001800160e0     kernel32:KERNEL32.dll
 0002:000000e8       __imp_TlsGetValue          00000001800160e8     kernel32:KERNEL32.dll
 0002:000000f0       __imp_TlsSetValue          00000001800160f0     kernel32:KERNEL32.dll
 0002:000000f8       __imp_TlsFree              00000001800160f8     kernel32:KERNEL32.dll
 0002:00000100       __imp_FreeLibrary          0000000180016100     kernel32:KERNEL32.dll
 0002:00000108       __imp_GetProcAddress       0000000180016108     kernel32:KERNEL32.dll
 0002:00000110       __imp_LoadLibraryExW       0000000180016110     kernel32:KERNEL32.dll
 0002:00000118       __imp_GetStdHandle         0000000180016118     kernel32:KERNEL32.dll
 0002:00000120       __imp_GetFileType          0000000180016120     kernel32:KERNEL32.dll
 0002:00000128       __imp_GetModuleFileNameW   0000000180016128     kernel32:KERNEL32.dll
 0002:00000130       __imp_GetModuleHandleExW   0000000180016130     kernel32:KERNEL32.dll
 0002:00000138       __imp_WriteConsoleW        0000000180016138     kernel32:KERNEL32.dll
 0002:00000140       __imp_ExitProcess          0000000180016140     kernel32:KERNEL32.dll
 0002:00000148       __imp_WriteFile            0000000180016148     kernel32:KERNEL32.dll
 0002:00000150       __imp_OutputDebugStringW   0000000180016150     kernel32:KERNEL32.dll
 0002:00000158       __imp_HeapAlloc            0000000180016158     kernel32:KERNEL32.dll
 0002:00000160       __imp_HeapFree             0000000180016160     kernel32:KERNEL32.dll
 0002:00000168       __imp_FindClose            0000000180016168     kernel32:KERNEL32.dll
 0002:00000170       __imp_FindFirstFileExW     0000000180016170     kernel32:KERNEL32.dll
 0002:00000178       __imp_FindNextFileW        0000000180016178     kernel32:KERNEL32.dll
 0002:00000180       __imp_IsValidCodePage      0000000180016180     kernel32:KERNEL32.dll
 0002:00000188       __imp_GetACP               0000000180016188     kernel32:KERNEL32.dll
 0002:00000190       __imp_GetOEMCP             0000000180016190     kernel32:KERNEL32.dll
 0002:00000198       __imp_GetCPInfo            0000000180016198     kernel32:KERNEL32.dll
 0002:000001a0       __imp_GetCommandLineA      00000001800161a0     kernel32:KERNEL32.dll
 0002:000001a8       __imp_GetCommandLineW      00000001800161a8     kernel32:KERNEL32.dll
 0002:000001b0       __imp_MultiByteToWideChar  00000001800161b0     kernel32:KERNEL32.dll
 0002:000001b8       __imp_WideCharToMultiByte  00000001800161b8     kernel32:KERNEL32.dll
 0002:000001c0       __imp_GetEnvironmentStringsW 00000001800161c0     kernel32:KERNEL32.dll
 0002:000001c8       __imp_FreeEnvironmentStringsW 00000001800161c8     kernel32:KERNEL32.dll
 0002:000001d0       __imp_LCMapStringW         00000001800161d0     kernel32:KERNEL32.dll
 0002:000001d8       __imp_GetProcessHeap       00000001800161d8     kernel32:KERNEL32.dll
 0002:000001e0       __imp_FlushFileBuffers     00000001800161e0     kernel32:KERNEL32.dll
 0002:000001e8       __imp_GetConsoleCP         00000001800161e8     kernel32:KERNEL32.dll
 0002:000001f0       __imp_GetConsoleMode       00000001800161f0     kernel32:KERNEL32.dll
 0002:000001f8       __imp_GetStringTypeW       00000001800161f8     kernel32:KERNEL32.dll
 0002:00000200       __imp_HeapSize             0000000180016200     kernel32:KERNEL32.dll
 0002:00000208       __imp_HeapReAlloc          0000000180016208     kernel32:KERNEL32.dll
 0002:00000210       __imp_SetStdHandle         0000000180016210     kernel32:KERNEL32.dll
 0002:00000218       __imp_GetFileSizeEx        0000000180016218     kernel32:KERNEL32.dll
 0002:00000220       __imp_SetFilePointerEx     0000000180016220     kernel32:KERNEL32.dll
 0002:00000228       __imp_CloseHandle          0000000180016228     kernel32:KERNEL32.dll
 0002:00000230       __imp_CreateFileW          0000000180016230     kernel32:KERNEL32.dll
 0002:00000238       __imp_GetSystemInfo        0000000180016238     kernel32:KERNEL32.dll
 0002:00000240       __imp_VirtualProtect       0000000180016240     kernel32:KERNEL32.dll
 0002:00000248       __imp_VirtualQuery         0000000180016248     kernel32:KERNEL32.dll
 0002:00000250       \177KERNEL32_NULL_THUNK_DATA 0000000180016250     kernel32:KERNEL32.dll
 0002:00000258       __guard_check_icall_fptr   0000000180016258     LIBCMT:guard_support.obj
 0002:00000260       __guard_dispatch_icall_fptr 0000000180016260     LIBCMT:guard_support.obj
 0002:00000268       __xc_a                     0000000180016268     LIBCMT:initializers.obj
 0002:00000270       _register_bufferutil_      0000000180016270     bufferutil.obj
 0002:00000278       __xc_z                     0000000180016278     LIBCMT:initializers.obj
 0002:00000280       __xi_a                     0000000180016280     LIBCMT:initializers.obj
 0002:00000288       __acrt_stdio_initializer   0000000180016288     libucrt:stdio_initializer.obj
 0002:00000290       __acrt_multibyte_initializer 0000000180016290     libucrt:multibyte_initializer.obj
 0002:00000298       __acrt_tran_fma3_initializer 0000000180016298     libucrt:fma3_initializer.obj
 0002:000002a0       __xi_z                     00000001800162a0     LIBCMT:initializers.obj
 0002:000002a8       __xp_a                     00000001800162a8     LIBCMT:initializers.obj
 0002:000002b0       __acrt_locale_terminator   00000001800162b0     libucrt:locale_initializer.obj
 0002:000002b8       __dcrt_console_output_terminator 00000001800162b8     libucrt:console_output_initializer.obj
 0002:000002c0       __acrt_stdio_terminator    00000001800162c0     libucrt:stdio_initializer.obj
 0002:000002c8       __xp_z                     00000001800162c8     LIBCMT:initializers.obj
 0002:000002d0       __xt_a                     00000001800162d0     LIBCMT:initializers.obj
 0002:000002d8       __xt_z                     00000001800162d8     LIBCMT:initializers.obj
 0002:000002e0       __sz_node_exe              00000001800162e0     node:node.exe
 0002:000002f0       _pDefaultRawDllMain        00000001800162f0     LIBCMT:dll_dllmain.obj
 0002:000002f0       _pRawDllMain               00000001800162f0     LIBCMT:dll_dllmain.obj
 0002:00000310       ??_7exception@std@@6B@     0000000180016310     LIBCMT:throw_bad_alloc.obj
 0002:00000320       ??_C@_0BC@EOODALEL@Unknown?5exception@ 0000000180016320     LIBCMT:throw_bad_alloc.obj
 0002:00000340       ??_7bad_alloc@std@@6B@     0000000180016340     LIBCMT:throw_bad_alloc.obj
 0002:00000350       ??_C@_0P@GHFPNOJB@bad?5allocation@ 0000000180016350     LIBCMT:throw_bad_alloc.obj
 0002:00000368       ??_7bad_array_new_length@std@@6B@ 0000000180016368     LIBCMT:throw_bad_alloc.obj
 0002:00000378       ??_C@_0BF@KINCDENJ@bad?5array?5new?5length@ 0000000180016378     LIBCMT:throw_bad_alloc.obj
 0002:00000398       ??_7type_info@@6B@         0000000180016398     LIBCMT:std_type_info_static.obj
 0002:000003e0       _pDestructExceptionObject  00000001800163e0     libvcruntime:ehhelpers.obj
 0002:00000728       ??_C@_08EHJDFFNH@__based?$CI@ 0000000180016728     libvcruntime:undname.obj
 0002:00000738       ??_C@_07KOLFKCDI@__cdecl@  0000000180016738     libvcruntime:undname.obj
 0002:00000740       ??_C@_08GHMPAG@__pascal@   0000000180016740     libvcruntime:undname.obj
 0002:00000750       ??_C@_09IFJBGAPI@__stdcall@ 0000000180016750     libvcruntime:undname.obj
 0002:00000760       ??_C@_0L@NPHFGOKO@__thiscall@ 0000000180016760     libvcruntime:undname.obj
 0002:00000770       ??_C@_0L@JMKHOMEK@__fastcall@ 0000000180016770     libvcruntime:undname.obj
 0002:00000780       ??_C@_0N@BCKKPABJ@__vectorcall@ 0000000180016780     libvcruntime:undname.obj
 0002:00000790       ??_C@_09HIJEGCPM@__clrcall@ 0000000180016790     libvcruntime:undname.obj
 0002:0000079c       ??_C@_06GHPCKEAG@__eabi@   000000018001679c     libvcruntime:undname.obj
 0002:000007a8       ??_C@_09IOPIDJLG@__swift_1@ 00000001800167a8     libvcruntime:undname.obj
 0002:000007b8       ??_C@_09KFNFGKHF@__swift_2@ 00000001800167b8     libvcruntime:undname.obj
 0002:000007c8       ??_C@_07JOMMBBKO@__ptr64@  00000001800167c8     libvcruntime:undname.obj
 0002:000007d0       ??_C@_0L@PILCLIHE@__restrict@ 00000001800167d0     libvcruntime:undname.obj
 0002:000007e0       ??_C@_0M@GFIIJFMG@__unaligned@ 00000001800167e0     libvcruntime:undname.obj
 0002:000007f0       ??_C@_09DHDLOLLB@restrict?$CI@ 00000001800167f0     libvcruntime:undname.obj
 0002:000007fa       ??_C@_00CNPNBAHC@@         00000001800167fa     libvcruntime:undname.obj
 0002:000007fc       ??_C@_04NIHEBCM@?5new@     00000001800167fc     libvcruntime:undname.obj
 0002:00000808       ??_C@_07FPCDHGMM@?5delete@ 0000000180016808     libvcruntime:undname.obj
 0002:00000810       ??_C@_01NEMOKFLO@?$DN@     0000000180016810     libvcruntime:undname.obj
 0002:00000814       ??_C@_02GPIOPFAK@?$DO?$DO@ 0000000180016814     libvcruntime:undname.obj
 0002:00000818       ??_C@_02FODMEDOG@?$DM?$DM@ 0000000180016818     libvcruntime:undname.obj
 0002:0000081c       ??_C@_01DCLJPIOD@?$CB@     000000018001681c     libvcruntime:undname.obj
 0002:00000820       ??_C@_02EGOFBIJA@?$DN?$DN@ 0000000180016820     libvcruntime:undname.obj
 0002:00000824       ??_C@_02FDNJECIE@?$CB?$DN@ 0000000180016824     libvcruntime:undname.obj
 0002:00000828       ??_C@_02GPECMEKF@?$FL?$FN@ 0000000180016828     libvcruntime:undname.obj
 0002:00000830       ??_C@_08LHJFAFGD@operator@ 0000000180016830     libvcruntime:undname.obj
 0002:0000083c       ??_C@_02HBOOOICD@?9?$DO@   000000018001683c     libvcruntime:undname.obj
 0002:00000840       ??_C@_01NBENCBCI@?$CK@     0000000180016840     libvcruntime:undname.obj
 0002:00000844       ??_C@_02ECNGHCIF@?$CL?$CL@ 0000000180016844     libvcruntime:undname.obj
 0002:00000848       ??_C@_02BAABKJLB@?9?9@     0000000180016848     libvcruntime:undname.obj
 0002:0000084c       ??_C@_01JOAMLHOP@?9@       000000018001684c     libvcruntime:undname.obj
 0002:00000850       ??_C@_01MIFGBAGJ@?$CL@     0000000180016850     libvcruntime:undname.obj
 0002:00000854       ??_C@_01HNPIGOCE@?$CG@     0000000180016854     libvcruntime:undname.obj
 0002:00000858       ??_C@_03MNHNFDLC@?9?$DO?$CK@ 0000000180016858     libvcruntime:undname.obj
 0002:0000085c       ??_C@_01KMDKNFGN@?1@       000000018001685c     libvcruntime:undname.obj
 0002:00000860       ??_C@_01FGNFDNOH@?$CF@     0000000180016860     libvcruntime:undname.obj
 0002:00000864       ??_C@_01MNNFJEPP@?$DM@     0000000180016864     libvcruntime:undname.obj
 0002:00000868       ??_C@_02EHCHHCKH@?$DM?$DN@ 0000000180016868     libvcruntime:undname.obj
 0002:0000086c       ??_C@_01PPODPGHN@?$DO@     000000018001686c     libvcruntime:undname.obj
 0002:00000870       ??_C@_02EEKDKGMJ@?$DO?$DN@ 0000000180016870     libvcruntime:undname.obj
 0002:00000874       ??_C@_01IHBHIGKO@?0@       0000000180016874     libvcruntime:undname.obj
 0002:00000878       ??_C@_02HCKGKOFO@?$CI?$CJ@ 0000000180016878     libvcruntime:undname.obj
 0002:0000087c       ??_C@_01PJKLJHI@?$HO@      000000018001687c     libvcruntime:undname.obj
 0002:00000880       ??_C@_01JKBOJNNK@?$FO@     0000000180016880     libvcruntime:undname.obj
 0002:00000884       ??_C@_01DNKMNLPK@?$HM@     0000000180016884     libvcruntime:undname.obj
 0002:00000888       ??_C@_02PPKAJPJL@?$CG?$CG@ 0000000180016888     libvcruntime:undname.obj
 0002:0000088c       ??_C@_02NONPIBCD@?$HM?$HM@ 000000018001688c     libvcruntime:undname.obj
 0002:00000890       ??_C@_02FPIMKNGF@?$CK?$DN@ 0000000180016890     libvcruntime:undname.obj
 0002:00000894       ??_C@_02FOEOMHFC@?$CL?$DN@ 0000000180016894     libvcruntime:undname.obj
 0002:00000898       ??_C@_02FKMDLLOA@?9?$DN@   0000000180016898     libvcruntime:undname.obj
 0002:0000089c       ??_C@_02FJEHGPIO@?1?$DN@   000000018001689c     libvcruntime:undname.obj
 0002:000008a0       ??_C@_02FENAOKFI@?$CF?$DN@ 00000001800168a0     libvcruntime:undname.obj
 0002:000008a4       ??_C@_03IKFCCPFF@?$DO?$DO?$DN@ 00000001800168a4     libvcruntime:undname.obj
 0002:000008a8       ??_C@_03CDNPDDLA@?$DM?$DM?$DN@ 00000001800168a8     libvcruntime:undname.obj
 0002:000008ac       ??_C@_02FGJGFEAB@?$CG?$DN@ 00000001800168ac     libvcruntime:undname.obj
 0002:000008b0       ??_C@_02DHLNPPGH@?$HM?$DN@ 00000001800168b0     libvcruntime:undname.obj
 0002:000008b4       ??_C@_02MHEGNOJ@?$FO?$DN@  00000001800168b4     libvcruntime:undname.obj
 0002:000008b8       ??_C@_09IFPLHPGF@?$GAvftable?8@ 00000001800168b8     libvcruntime:undname.obj
 0002:000008c8       ??_C@_09BLBHBJP@?$GAvbtable?8@ 00000001800168c8     libvcruntime:undname.obj
 0002:000008d8       ??_C@_07FEEIOKP@?$GAvcall?8@ 00000001800168d8     libvcruntime:undname.obj
 0002:000008e0       ??_C@_08LLFFHHDJ@?$GAtypeof?8@ 00000001800168e0     libvcruntime:undname.obj
 0002:000008f0       ??_C@_0BF@KDPPACIK@?$GAlocal?5static?5guard?8@ 00000001800168f0     libvcruntime:undname.obj
 0002:00000908       ??_C@_08OBABFOLI@?$GAstring?8@ 0000000180016908     libvcruntime:undname.obj
 0002:00000918       ??_C@_0BD@JDLKDPAB@?$GAvbase?5destructor?8@ 0000000180016918     libvcruntime:undname.obj
 0002:00000930       ??_C@_0BN@DEGPLNFK@?$GAvector?5deleting?5destructor?8@ 0000000180016930     libvcruntime:undname.obj
 0002:00000950       ??_C@_0BO@OBMKPJIG@?$GAdefault?5constructor?5closure?8@ 0000000180016950     libvcruntime:undname.obj
 0002:00000970       ??_C@_0BN@IMDCHIKM@?$GAscalar?5deleting?5destructor?8@ 0000000180016970     libvcruntime:undname.obj
 0002:00000990       ??_C@_0BO@PFGOCPJJ@?$GAvector?5constructor?5iterator?8@ 0000000180016990     libvcruntime:undname.obj
 0002:000009b0       ??_C@_0BN@LFPFMEDL@?$GAvector?5destructor?5iterator?8@ 00000001800169b0     libvcruntime:undname.obj
 0002:000009d0       ??_C@_0CE@IKBNEHA@?$GAvector?5vbase?5constructor?5itera@ 00000001800169d0     libvcruntime:undname.obj
 0002:000009f8       ??_C@_0BL@NILFHHPC@?$GAvirtual?5displacement?5map?8@ 00000001800169f8     libvcruntime:undname.obj
 0002:00000a18       ??_C@_0CB@JONCMFFK@?$GAeh?5vector?5constructor?5iterator@ 0000000180016a18     libvcruntime:undname.obj
 0002:00000a40       ??_C@_0CA@GCEOPDGL@?$GAeh?5vector?5destructor?5iterator?8@ 0000000180016a40     libvcruntime:undname.obj
 0002:00000a60       ??_C@_0CH@OOJPLCPH@?$GAeh?5vector?5vbase?5constructor?5it@ 0000000180016a60     libvcruntime:undname.obj
 0002:00000a88       ??_C@_0BL@LLKPOHJI@?$GAcopy?5constructor?5closure?8@ 0000000180016a88     libvcruntime:undname.obj
 0002:00000aa8       ??_C@_0BA@KBCDOMBN@?$GAudt?5returning?8@ 0000000180016aa8     libvcruntime:undname.obj
 0002:00000ab8       ??_C@_03KLGMFNMG@?$GAEH@   0000000180016ab8     libvcruntime:undname.obj
 0002:00000abc       ??_C@_05KHLCHHI@?$GARTTI@  0000000180016abc     libvcruntime:undname.obj
 0002:00000ac8       ??_C@_0BA@KKLDJDLB@?$GAlocal?5vftable?8@ 0000000180016ac8     libvcruntime:undname.obj
 0002:00000ad8       ??_C@_0CE@IIHCMGGL@?$GAlocal?5vftable?5constructor?5clos@ 0000000180016ad8     libvcruntime:undname.obj
 0002:00000afc       ??_C@_06FHBGPFGH@?5new?$FL?$FN@ 0000000180016afc     libvcruntime:undname.obj
 0002:00000b08       ??_C@_09LBNFPBCA@?5delete?$FL?$FN@ 0000000180016b08     libvcruntime:undname.obj
 0002:00000b18       ??_C@_0P@HJKNJFNN@?$GAomni?5callsig?8@ 0000000180016b18     libvcruntime:undname.obj
 0002:00000b28       ??_C@_0BL@CNOONJFP@?$GAplacement?5delete?5closure?8@ 0000000180016b28     libvcruntime:undname.obj
 0002:00000b48       ??_C@_0BN@CKNJLHMB@?$GAplacement?5delete?$FL?$FN?5closure?8@ 0000000180016b48     libvcruntime:undname.obj
 0002:00000b68       ??_C@_0CG@CFDHKGGD@?$GAmanaged?5vector?5constructor?5ite@ 0000000180016b68     libvcruntime:undname.obj
 0002:00000b90       ??_C@_0CF@IMGKMJNO@?$GAmanaged?5vector?5destructor?5iter@ 0000000180016b90     libvcruntime:undname.obj
 0002:00000bb8       ??_C@_0CG@HLDDJMAG@?$GAeh?5vector?5copy?5constructor?5ite@ 0000000180016bb8     libvcruntime:undname.obj
 0002:00000be0       ??_C@_0CM@FCBBDIGB@?$GAeh?5vector?5vbase?5copy?5construct@ 0000000180016be0     libvcruntime:undname.obj
 0002:00000c10       ??_C@_0BL@CLIPGLGB@?$GAdynamic?5initializer?5for?5?8@ 0000000180016c10     libvcruntime:undname.obj
 0002:00000c30       ??_C@_0CB@PDBIFEP@?$GAdynamic?5atexit?5destructor?5for?5@ 0000000180016c30     libvcruntime:undname.obj
 0002:00000c58       ??_C@_0CD@CGAJBKEJ@?$GAvector?5copy?5constructor?5iterat@ 0000000180016c58     libvcruntime:undname.obj
 0002:00000c80       ??_C@_0CJ@GJELGAMM@?$GAvector?5vbase?5copy?5constructor?5@ 0000000180016c80     libvcruntime:undname.obj
 0002:00000cb0       ??_C@_0CL@FGIJHLCE@?$GAmanaged?5vector?5copy?5constructo@ 0000000180016cb0     libvcruntime:undname.obj
 0002:00000ce0       ??_C@_0BM@PMGGMLDN@?$GAlocal?5static?5thread?5guard?8@ 0000000180016ce0     libvcruntime:undname.obj
 0002:00000d00       ??_C@_0N@BDNMDMOL@operator?5?$CC?$CC?5@ 0000000180016d00     libvcruntime:undname.obj
 0002:00000d10       ??_C@_0BC@GGEBGALA@operator?5co_await@ 0000000180016d10     libvcruntime:undname.obj
 0002:00000d28       ??_C@_0BC@DAFEJGAK@?5Type?5Descriptor?8@ 0000000180016d28     libvcruntime:undname.obj
 0002:00000d40       ??_C@_0BM@LDKODKLH@?5Base?5Class?5Descriptor?5at?5?$CI@ 0000000180016d40     libvcruntime:undname.obj
 0002:00000d60       ??_C@_0BD@LGICGFMM@?5Base?5Class?5Array?8@ 0000000180016d60     libvcruntime:undname.obj
 0002:00000d78       ??_C@_0BN@MECKDCOJ@?5Class?5Hierarchy?5Descriptor?8@ 0000000180016d78     libvcruntime:undname.obj
 0002:00000d98       ??_C@_0BK@CFCOFLF@?5Complete?5Object?5Locator?8@ 0000000180016d98     libvcruntime:undname.obj
 0002:00000dd0       ??_C@_1DM@KHCHBNEB@?$AAa?$AAp?$AAi?$AA?9?$AAm?$AAs?$AA?9?$AAw?$AAi?$AAn?$AA?9?$AAc?$AAo?$AAr?$AAe@ 0000000180016dd0     libvcruntime:winapi_downlevel.obj
 0002:00000e10       ??_C@_1DK@LPPGFMPP@?$AAa?$AAp?$AAi?$AA?9?$AAm?$AAs?$AA?9?$AAw?$AAi?$AAn?$AA?9?$AAc?$AAo?$AAr?$AAe@ 0000000180016e10     libvcruntime:winapi_downlevel.obj
 0002:00000e50       ??_C@_1BC@GDMECMAK@?$AAk?$AAe?$AAr?$AAn?$AAe?$AAl?$AA3?$AA2@ 0000000180016e50     libvcruntime:winapi_downlevel.obj
 0002:00000e68       ??_C@_1BA@PFFKHIOG@?$AAa?$AAp?$AAi?$AA?9?$AAm?$AAs?$AA?9@ 0000000180016e68     libvcruntime:winapi_downlevel.obj
 0002:00000e78       ??_C@_1BA@IAIFMGEF@?$AAe?$AAx?$AAt?$AA?9?$AAm?$AAs?$AA?9@ 0000000180016e78     libvcruntime:winapi_downlevel.obj
 0002:00000e90       ??_C@_08KNHFBNJ@FlsAlloc@  0000000180016e90     libvcruntime:winapi_downlevel.obj
 0002:00000ea8       ??_C@_07PEJMOBNF@FlsFree@  0000000180016ea8     libvcruntime:winapi_downlevel.obj
 0002:00000eb8       ??_C@_0M@GDNOONDI@FlsGetValue@ 0000000180016eb8     libvcruntime:winapi_downlevel.obj
 0002:00000ed0       ??_C@_0M@JCPCPOEF@FlsSetValue@ 0000000180016ed0     libvcruntime:winapi_downlevel.obj
 0002:00000ee8       ??_C@_0BM@HCFOFFN@InitializeCriticalSectionEx@ 0000000180016ee8     libvcruntime:winapi_downlevel.obj
 0002:00000f10       ??_C@_1FE@LHBLIKM@?$AAA?$AAs?$AAs?$AAe?$AAr?$AAt?$AAi?$AAo?$AAn?$AA?5?$AAf?$AAa?$AAi?$AAl?$AAe?$AAd?$AA?3?$AA?5?$AA?$CF?$AAT?$AAs?$AA?0?$AA?5?$AAf?$AAi?$AAl?$AAe?$AA?5?$AA?$CF?$AAT?$AAs?$AA?0@ 0000000180016f10     libucrt:assert.obj
 0002:00000f70       ??_C@_1EK@MBDPDCGA@?$AAM?$AAi?$AAc?$AAr?$AAo?$AAs?$AAo?$AAf?$AAt?$AA?5?$AAV?$AAi?$AAs?$AAu?$AAa?$AAl?$AA?5?$AAC?$AA?$CL?$AA?$CL?$AA?5?$AAR?$AAu?$AAn?$AAt?$AAi?$AAm?$AAe?$AA?5?$AAL?$AAi?$AAb@ 0000000180016f70     libucrt:assert.obj
 0002:00000fc0       ??_C@_1CE@OJBNHDMO@?$AAA?$AAs?$AAs?$AAe?$AAr?$AAt?$AAi?$AAo?$AAn?$AA?5?$AAf?$AAa?$AAi?$AAl?$AAe?$AAd?$AA?$CB?$AA?$AA@ 0000000180016fc0     libucrt:assert.obj
 0002:00000fe8       ??_C@_1BE@PHKBBGE@?$AAP?$AAr?$AAo?$AAg?$AAr?$AAa?$AAm?$AA?3?$AA?5?$AA?$AA@ 0000000180016fe8     libucrt:assert.obj
 0002:00001000       ??_C@_1O@HEMHKNDC@?$AAF?$AAi?$AAl?$AAe?$AA?3?$AA?5?$AA?$AA@ 0000000180017000     libucrt:assert.obj
 0002:00001010       ??_C@_1O@KCAFKHJE@?$AAL?$AAi?$AAn?$AAe?$AA?3?$AA?5?$AA?$AA@ 0000000180017010     libucrt:assert.obj
 0002:00001020       ??_C@_1BK@PEDCIPMA@?$AAE?$AAx?$AAp?$AAr?$AAe?$AAs?$AAs?$AAi?$AAo?$AAn?$AA?3?$AA?5?$AA?$AA@ 0000000180017020     libucrt:assert.obj
 0002:00001040       ??_C@_1OA@EGMLFBHJ@?$AAF?$AAo?$AAr?$AA?5?$AAi?$AAn?$AAf?$AAo?$AAr?$AAm?$AAa?$AAt?$AAi?$AAo?$AAn?$AA?5?$AAo?$AAn?$AA?5?$AAh?$AAo?$AAw?$AA?5?$AAy?$AAo?$AAu?$AAr?$AA?5?$AAp?$AAr?$AAo?$AAg@ 0000000180017040     libucrt:assert.obj
 0002:00001120       ??_C@_1HK@POCJMFGK@?$AA?$CI?$AAP?$AAr?$AAe?$AAs?$AAs?$AA?5?$AAR?$AAe?$AAt?$AAr?$AAy?$AA?5?$AAt?$AAo?$AA?5?$AAd?$AAe?$AAb?$AAu?$AAg?$AA?5?$AAt?$AAh?$AAe?$AA?5?$AAa?$AAp?$AAp?$AAl?$AAi?$AAc@ 0000000180017120     libucrt:assert.obj
 0002:000011a0       ??_C@_17LGKOMLJ@?$AA?4?$AA?4?$AA?4?$AA?$AA@ 00000001800171a0     libucrt:assert.obj
 0002:000011a8       ??_C@_13LBAGMAIH@?$AA?6?$AA?$AA@ 00000001800171a8     libucrt:assert.obj
 0002:000011ac       ??_C@_15IABLJNFO@?$AA?6?$AA?6?$AA?$AA@ 00000001800171ac     libucrt:assert.obj
 0002:000011b8       ??_C@_1CO@EAEJAADC@?$AA?$DM?$AAp?$AAr?$AAo?$AAg?$AAr?$AAa?$AAm?$AA?5?$AAn?$AAa?$AAm?$AAe?$AA?5?$AAu?$AAn?$AAk?$AAn?$AAo?$AAw?$AAn?$AA?$DO?$AA?$AA@ 00000001800171b8     libucrt:assert.obj
 0002:000011f0       __acrt_exception_action_table 00000001800171f0     libucrt:exception_filter.obj
 0002:000012b0       __acrt_signal_action_table_count 00000001800172b0     libucrt:exception_filter.obj
 0002:000012b8       __acrt_signal_action_first_fpe_index 00000001800172b8     libucrt:exception_filter.obj
 0002:000012c0       __acrt_signal_action_fpe_count 00000001800172c0     libucrt:exception_filter.obj
 0002:000012c8       ??_C@_1BI@BGOHAHKC@?$AAm?$AAs?$AAc?$AAo?$AAr?$AAe?$AAe?$AA?4?$AAd?$AAl?$AAl?$AA?$AA@ 00000001800172c8     libucrt:exit.obj
 0002:000012e0       ??_C@_0P@MIGLKIOC@CorExitProcess?$AA@ 00000001800172e0     libucrt:exit.obj
 0002:000013f0       standard_lookup_table      00000001800173f0     libucrt:output.obj
 0002:00001450       ??_C@_1O@CEDCILHN@?$AA?$CI?$AAn?$AAu?$AAl?$AAl?$AA?$CJ?$AA?$AA@ 0000000180017450     libucrt:output.obj
 0002:00001460       ??_C@_06OJHGLDPL@?$CInull?$CJ?$AA@ 0000000180017460     libucrt:output.obj
 0002:000015e0       __lc_time_c                00000001800175e0     libucrt:nlsdata.obj
 0002:000018a0       ??_C@_03KOEHGMDN@Sun?$AA@  00000001800178a0     libucrt:nlsdata.obj
 0002:000018a4       ??_C@_03PDAGKDH@Mon?$AA@   00000001800178a4     libucrt:nlsdata.obj
 0002:000018a8       ??_C@_03NAGEINEP@Tue?$AA@  00000001800178a8     libucrt:nlsdata.obj
 0002:000018ac       ??_C@_03MHOMLAJA@Wed?$AA@  00000001800178ac     libucrt:nlsdata.obj
 0002:000018b0       ??_C@_03IOFIKPDN@Thu?$AA@  00000001800178b0     libucrt:nlsdata.obj
 0002:000018b4       ??_C@_03IDIOELNC@Fri?$AA@  00000001800178b4     libucrt:nlsdata.obj
 0002:000018b8       ??_C@_03FEFJNEK@Sat?$AA@   00000001800178b8     libucrt:nlsdata.obj
 0002:000018bc       ??_C@_06OOPIFAJ@Sunday?$AA@ 00000001800178bc     libucrt:nlsdata.obj
 0002:000018c4       ??_C@_06JLEDEDGH@Monday?$AA@ 00000001800178c4     libucrt:nlsdata.obj
 0002:000018d0       ??_C@_07BAAGCFCM@Tuesday?$AA@ 00000001800178d0     libucrt:nlsdata.obj
 0002:000018d8       ??_C@_09DLIGFAKA@Wednesday?$AA@ 00000001800178d8     libucrt:nlsdata.obj
 0002:000018e8       ??_C@_08HACCIKIA@Thursday?$AA@ 00000001800178e8     libucrt:nlsdata.obj
 0002:000018f4       ??_C@_06JECMNKMI@Friday?$AA@ 00000001800178f4     libucrt:nlsdata.obj
 0002:00001900       ??_C@_08INBOOONO@Saturday?$AA@ 0000000180017900     libucrt:nlsdata.obj
 0002:0000190c       ??_C@_03JIHJHPIE@Jan?$AA@  000000018001790c     libucrt:nlsdata.obj
 0002:00001910       ??_C@_03HJBDCHOM@Feb?$AA@  0000000180017910     libucrt:nlsdata.obj
 0002:00001914       ??_C@_03ODNJBKGA@Mar?$AA@  0000000180017914     libucrt:nlsdata.obj
 0002:00001918       ??_C@_03LEOLGMJP@Apr?$AA@  0000000180017918     libucrt:nlsdata.obj
 0002:0000191c       ??_C@_03CNMDKL@May?$AA@    000000018001791c     libucrt:nlsdata.obj
 0002:00001920       ??_C@_03IDFGHECI@Jun?$AA@  0000000180017920     libucrt:nlsdata.obj
 0002:00001924       ??_C@_03LBGABGKK@Jul?$AA@  0000000180017924     libucrt:nlsdata.obj
 0002:00001928       ??_C@_03IFJFEIGA@Aug?$AA@  0000000180017928     libucrt:nlsdata.obj
 0002:0000192c       ??_C@_03GGCAPAJC@Sep?$AA@  000000018001792c     libucrt:nlsdata.obj
 0002:00001930       ??_C@_03BMAOKBAD@Oct?$AA@  0000000180017930     libucrt:nlsdata.obj
 0002:00001934       ??_C@_03JPJOFNIA@Nov?$AA@  0000000180017934     libucrt:nlsdata.obj
 0002:00001938       ??_C@_03MKABNOCG@Dec?$AA@  0000000180017938     libucrt:nlsdata.obj
 0002:00001940       ??_C@_07CGJPFGJA@January?$AA@ 0000000180017940     libucrt:nlsdata.obj
 0002:00001948       ??_C@_08GNJGEPFN@February?$AA@ 0000000180017948     libucrt:nlsdata.obj
 0002:00001954       ??_C@_05HPCKOFNC@March?$AA@ 0000000180017954     libucrt:nlsdata.obj
 0002:0000195c       ??_C@_05DMJDNLEJ@April?$AA@ 000000018001795c     libucrt:nlsdata.obj
 0002:00001964       ??_C@_04CNLMGBGM@June?$AA@ 0000000180017964     libucrt:nlsdata.obj
 0002:0000196c       ??_C@_04MIEPOIFP@July?$AA@ 000000018001796c     libucrt:nlsdata.obj
 0002:00001974       ??_C@_06LBBHFDDG@August?$AA@ 0000000180017974     libucrt:nlsdata.obj
 0002:00001980       ??_C@_09BHHEALKD@September?$AA@ 0000000180017980     libucrt:nlsdata.obj
 0002:00001990       ??_C@_07JJNFCEND@October?$AA@ 0000000180017990     libucrt:nlsdata.obj
 0002:00001998       ??_C@_08HCHEGEOA@November?$AA@ 0000000180017998     libucrt:nlsdata.obj
 0002:000019a8       ??_C@_08EDHMEBNP@December?$AA@ 00000001800179a8     libucrt:nlsdata.obj
 0002:000019b4       ??_C@_02DEDBPAFC@AM?$AA@   00000001800179b4     libucrt:nlsdata.obj
 0002:000019b8       ??_C@_02CJNFDJBF@PM?$AA@   00000001800179b8     libucrt:nlsdata.obj
 0002:000019c0       ??_C@_08BPBNCDIB@MM?1dd?1yy?$AA@ 00000001800179c0     libucrt:nlsdata.obj
 0002:000019d0       ??_C@_0BE@CKGJFCPC@dddd?0?5MMMM?5dd?0?5yyyy?$AA@ 00000001800179d0     libucrt:nlsdata.obj
 0002:000019e8       ??_C@_08JCCMCCIL@HH?3mm?3ss?$AA@ 00000001800179e8     libucrt:nlsdata.obj
 0002:000019f8       ??_C@_17MBGCMIPB@?$AAS?$AAu?$AAn?$AA?$AA@ 00000001800179f8     libucrt:nlsdata.obj
 0002:00001a00       ??_C@_17KBOMKBF@?$AAM?$AAo?$AAn?$AA?$AA@ 0000000180017a00     libucrt:nlsdata.obj
 0002:00001a08       ??_C@_17BMKGEGOJ@?$AAT?$AAu?$AAe?$AA?$AA@ 0000000180017a08     libucrt:nlsdata.obj
 0002:00001a10       ??_C@_17CJEDCEPE@?$AAW?$AAe?$AAd?$AA?$AA@ 0000000180017a10     libucrt:nlsdata.obj
 0002:00001a18       ??_C@_17PDPHAADD@?$AAT?$AAh?$AAu?$AA?$AA@ 0000000180017a18     libucrt:nlsdata.obj
 0002:00001a20       ??_C@_17HFOLPPLP@?$AAF?$AAr?$AAi?$AA?$AA@ 0000000180017a20     libucrt:nlsdata.obj
 0002:00001a28       ??_C@_17GGIBDPIH@?$AAS?$AAa?$AAt?$AA?$AA@ 0000000180017a28     libucrt:nlsdata.obj
 0002:00001a30       ??_C@_1O@IHNHDHPB@?$AAS?$AAu?$AAn?$AAd?$AAa?$AAy?$AA?$AA@ 0000000180017a30     libucrt:nlsdata.obj
 0002:00001a40       ??_C@_1O@MMNBFLIA@?$AAM?$AAo?$AAn?$AAd?$AAa?$AAy?$AA?$AA@ 0000000180017a40     libucrt:nlsdata.obj
 0002:00001a50       ??_C@_1BA@ENFBFFEK@?$AAT?$AAu?$AAe?$AAs?$AAd?$AAa?$AAy?$AA?$AA@ 0000000180017a50     libucrt:nlsdata.obj
 0002:00001a60       ??_C@_1BE@EBOGMDOH@?$AAW?$AAe?$AAd?$AAn?$AAe?$AAs?$AAd?$AAa?$AAy?$AA?$AA@ 0000000180017a60     libucrt:nlsdata.obj
 0002:00001a78       ??_C@_1BC@HHMNLIHE@?$AAT?$AAh?$AAu?$AAr?$AAs?$AAd?$AAa?$AAy?$AA?$AA@ 0000000180017a78     libucrt:nlsdata.obj
 0002:00001a90       ??_C@_1O@PDICJHAG@?$AAF?$AAr?$AAi?$AAd?$AAa?$AAy?$AA?$AA@ 0000000180017a90     libucrt:nlsdata.obj
 0002:00001aa0       ??_C@_1BC@ENMNNPAJ@?$AAS?$AAa?$AAt?$AAu?$AAr?$AAd?$AAa?$AAy?$AA?$AA@ 0000000180017aa0     libucrt:nlsdata.obj
 0002:00001ab8       ??_C@_17DKNBKCHM@?$AAJ?$AAa?$AAn?$AA?$AA@ 0000000180017ab8     libucrt:nlsdata.obj
 0002:00001ac0       ??_C@_17LMDJEKJN@?$AAF?$AAe?$AAb?$AA?$AA@ 0000000180017ac0     libucrt:nlsdata.obj
 0002:00001ac8       ??_C@_17CKNLEDEC@?$AAM?$AAa?$AAr?$AA?$AA@ 0000000180017ac8     libucrt:nlsdata.obj
 0002:00001ad0       ??_C@_17LFPOIHDD@?$AAA?$AAp?$AAr?$AA?$AA@ 0000000180017ad0     libucrt:nlsdata.obj
 0002:00001ad8       ??_C@_17PNNKMEED@?$AAM?$AAa?$AAy?$AA?$AA@ 0000000180017ad8     libucrt:nlsdata.obj
 0002:00001ae0       ??_C@_17KCJGOCPB@?$AAJ?$AAu?$AAn?$AA?$AA@ 0000000180017ae0     libucrt:nlsdata.obj
 0002:00001ae8       ??_C@_17IJPCKHK@?$AAJ?$AAu?$AAl?$AA?$AA@ 0000000180017ae8     libucrt:nlsdata.obj
 0002:00001af0       ??_C@_17ICPELBCN@?$AAA?$AAu?$AAg?$AA?$AA@ 0000000180017af0     libucrt:nlsdata.obj
 0002:00001af8       ??_C@_17HCHCOKMG@?$AAS?$AAe?$AAp?$AA?$AA@ 0000000180017af8     libucrt:nlsdata.obj
 0002:00001b00       ??_C@_17FNLKOI@?$AAO?$AAc?$AAt?$AA?$AA@ 0000000180017b00     libucrt:nlsdata.obj
 0002:00001b08       ??_C@_17BBDMLCIG@?$AAN?$AAo?$AAv?$AA?$AA@ 0000000180017b08     libucrt:nlsdata.obj
 0002:00001b10       ??_C@_17EGKACKIF@?$AAD?$AAe?$AAc?$AA?$AA@ 0000000180017b10     libucrt:nlsdata.obj
 0002:00001b18       ??_C@_1BA@EFMEIEBA@?$AAJ?$AAa?$AAn?$AAu?$AAa?$AAr?$AAy?$AA?$AA@ 0000000180017b18     libucrt:nlsdata.obj
 0002:00001b28       ??_C@_1BC@JGDDFFAM@?$AAF?$AAe?$AAb?$AAr?$AAu?$AAa?$AAr?$AAy?$AA?$AA@ 0000000180017b28     libucrt:nlsdata.obj
 0002:00001b40       ??_C@_1M@IKEENEDF@?$AAM?$AAa?$AAr?$AAc?$AAh?$AA?$AA@ 0000000180017b40     libucrt:nlsdata.obj
 0002:00001b50       ??_C@_1M@GJNLMHFD@?$AAA?$AAp?$AAr?$AAi?$AAl?$AA?$AA@ 0000000180017b50     libucrt:nlsdata.obj
 0002:00001b60       ??_C@_19EPFLPGAP@?$AAJ?$AAu?$AAn?$AAe?$AA?$AA@ 0000000180017b60     libucrt:nlsdata.obj
 0002:00001b70       ??_C@_19BIFMLPCD@?$AAJ?$AAu?$AAl?$AAy?$AA?$AA@ 0000000180017b70     libucrt:nlsdata.obj
 0002:00001b80       ??_C@_1O@PAHLKOAC@?$AAA?$AAu?$AAg?$AAu?$AAs?$AAt?$AA?$AA@ 0000000180017b80     libucrt:nlsdata.obj
 0002:00001b90       ??_C@_1BE@DKAAMBJL@?$AAS?$AAe?$AAp?$AAt?$AAe?$AAm?$AAb?$AAe?$AAr?$AA?$AA@ 0000000180017b90     libucrt:nlsdata.obj
 0002:00001ba8       ??_C@_1BA@EPANDLNG@?$AAO?$AAc?$AAt?$AAo?$AAb?$AAe?$AAr?$AA?$AA@ 0000000180017ba8     libucrt:nlsdata.obj
 0002:00001bb8       ??_C@_1BC@BGLIFPF@?$AAN?$AAo?$AAv?$AAe?$AAm?$AAb?$AAe?$AAr?$AA?$AA@ 0000000180017bb8     libucrt:nlsdata.obj
 0002:00001bd0       ??_C@_1BC@FEMKIFH@?$AAD?$AAe?$AAc?$AAe?$AAm?$AAb?$AAe?$AAr?$AA?$AA@ 0000000180017bd0     libucrt:nlsdata.obj
 0002:00001be4       ??_C@_15ODEHAHHF@?$AAA?$AAM?$AA?$AA@ 0000000180017be4     libucrt:nlsdata.obj
 0002:00001bec       ??_C@_15CLMNNGEL@?$AAP?$AAM?$AA?$AA@ 0000000180017bec     libucrt:nlsdata.obj
 0002:00001bf8       ??_C@_1BC@IEBCMHCM@?$AAM?$AAM?$AA?1?$AAd?$AAd?$AA?1?$AAy?$AAy?$AA?$AA@ 0000000180017bf8     libucrt:nlsdata.obj
 0002:00001c10       ??_C@_1CI@KNAKOEBC@?$AAd?$AAd?$AAd?$AAd?$AA?0?$AA?5?$AAM?$AAM?$AAM?$AAM?$AA?5?$AAd?$AAd?$AA?0?$AA?5?$AAy?$AAy?$AAy?$AAy?$AA?$AA@ 0000000180017c10     libucrt:nlsdata.obj
 0002:00001c38       ??_C@_1BC@GDGBMEMK@?$AAH?$AAH?$AA?3?$AAm?$AAm?$AA?3?$AAs?$AAs?$AA?$AA@ 0000000180017c38     libucrt:nlsdata.obj
 0002:00001c50       ??_C@_1M@BMHNFIME@?$AAe?$AAn?$AA?9?$AAU?$AAS?$AA?$AA@ 0000000180017c50     libucrt:nlsdata.obj
 0002:00001c80       ??_C@_1M@HPNHIDJI@?$AAj?$AAa?$AA?9?$AAJ?$AAP?$AA?$AA@ 0000000180017c80     libucrt:mbctype.obj
 0002:00001c90       ??_C@_1M@BIBDDEMK@?$AAz?$AAh?$AA?9?$AAC?$AAN?$AA?$AA@ 0000000180017c90     libucrt:mbctype.obj
 0002:00001ca0       ??_C@_1M@JLOOOEGK@?$AAk?$AAo?$AA?9?$AAK?$AAR?$AA?$AA@ 0000000180017ca0     libucrt:mbctype.obj
 0002:00001cb0       ??_C@_1M@CLNBBOPM@?$AAz?$AAh?$AA?9?$AAT?$AAW?$AA?$AA@ 0000000180017cb0     libucrt:mbctype.obj
 0002:00001d60       ??_C@_1EA@JGEFHKEI@?$AAa?$AAp?$AAi?$AA?9?$AAm?$AAs?$AA?9?$AAw?$AAi?$AAn?$AA?9?$AAc?$AAo?$AAr?$AAe?$AA?9?$AAd?$AAa?$AAt?$AAe?$AAt?$AAi?$AAm?$AAe?$AA?9?$AAl?$AA1?$AA?9?$AA1?$AA?9?$AA1?$AA?$AA@ 0000000180017d60     libucrt:winapi_thunks.obj
 0002:00001da0       ??_C@_1DM@KHCHBNEB@?$AAa?$AAp?$AAi?$AA?9?$AAm?$AAs?$AA?9?$AAw?$AAi?$AAn?$AA?9?$AAc?$AAo?$AAr?$AAe?$AA?9?$AAf?$AAi?$AAb?$AAe?$AAr?$AAs?$AA?9?$AAl?$AA1?$AA?9?$AA1?$AA?9?$AA1?$AA?$AA@ 0000000180017da0     libucrt:winapi_thunks.obj
 0002:00001de0       ??_C@_1DI@IJCEHOCB@?$AAa?$AAp?$AAi?$AA?9?$AAm?$AAs?$AA?9?$AAw?$AAi?$AAn?$AA?9?$AAc?$AAo?$AAr?$AAe?$AA?9?$AAf?$AAi?$AAl?$AAe?$AA?9?$AAl?$AA1?$AA?9?$AA2?$AA?9?$AA2?$AA?$AA@ 0000000180017de0     libucrt:winapi_thunks.obj
 0002:00001e20       ??_C@_1EI@MPIAOHOC@?$AAa?$AAp?$AAi?$AA?9?$AAm?$AAs?$AA?9?$AAw?$AAi?$AAn?$AA?9?$AAc?$AAo?$AAr?$AAe?$AA?9?$AAl?$AAo?$AAc?$AAa?$AAl?$AAi?$AAz?$AAa?$AAt?$AAi?$AAo?$AAn?$AA?9?$AAl?$AA1?$AA?9@ 0000000180017e20     libucrt:winapi_thunks.obj
 0002:00001e70       ??_C@_1FK@FPHCKFIE@?$AAa?$AAp?$AAi?$AA?9?$AAm?$AAs?$AA?9?$AAw?$AAi?$AAn?$AA?9?$AAc?$AAo?$AAr?$AAe?$AA?9?$AAl?$AAo?$AAc?$AAa?$AAl?$AAi?$AAz?$AAa?$AAt?$AAi?$AAo?$AAn?$AA?9?$AAo?$AAb?$AAs@ 0000000180017e70     libucrt:winapi_thunks.obj
 0002:00001ed0       ??_C@_1EM@DILCGIIO@?$AAa?$AAp?$AAi?$AA?9?$AAm?$AAs?$AA?9?$AAw?$AAi?$AAn?$AA?9?$AAc?$AAo?$AAr?$AAe?$AA?9?$AAp?$AAr?$AAo?$AAc?$AAe?$AAs?$AAs?$AAt?$AAh?$AAr?$AAe?$AAa?$AAd?$AAs?$AA?9?$AAl@ 0000000180017ed0     libucrt:winapi_thunks.obj
 0002:00001f20       ??_C@_1DM@LNCGDDPN@?$AAa?$AAp?$AAi?$AA?9?$AAm?$AAs?$AA?9?$AAw?$AAi?$AAn?$AA?9?$AAc?$AAo?$AAr?$AAe?$AA?9?$AAs?$AAt?$AAr?$AAi?$AAn?$AAg?$AA?9?$AAl?$AA1?$AA?9?$AA1?$AA?9?$AA0?$AA?$AA@ 0000000180017f20     libucrt:winapi_thunks.obj
 0002:00001f60       ??_C@_1DK@LPPGFMPP@?$AAa?$AAp?$AAi?$AA?9?$AAm?$AAs?$AA?9?$AAw?$AAi?$AAn?$AA?9?$AAc?$AAo?$AAr?$AAe?$AA?9?$AAs?$AAy?$AAn?$AAc?$AAh?$AA?9?$AAl?$AA1?$AA?9?$AA2?$AA?9?$AA0?$AA?$AA@ 0000000180017f60     libucrt:winapi_thunks.obj
 0002:00001fa0       ??_C@_1DO@FPAPJEMD@?$AAa?$AAp?$AAi?$AA?9?$AAm?$AAs?$AA?9?$AAw?$AAi?$AAn?$AA?9?$AAc?$AAo?$AAr?$AAe?$AA?9?$AAs?$AAy?$AAs?$AAi?$AAn?$AAf?$AAo?$AA?9?$AAl?$AA1?$AA?9?$AA2?$AA?9?$AA1?$AA?$AA@ 0000000180017fa0     libucrt:winapi_thunks.obj
 0002:00001fe0       ??_C@_1DK@NDHNAHIO@?$AAa?$AAp?$AAi?$AA?9?$AAm?$AAs?$AA?9?$AAw?$AAi?$AAn?$AA?9?$AAc?$AAo?$AAr?$AAe?$AA?9?$AAw?$AAi?$AAn?$AAr?$AAt?$AA?9?$AAl?$AA1?$AA?9?$AA1?$AA?9?$AA0?$AA?$AA@ 0000000180017fe0     libucrt:winapi_thunks.obj
 0002:00002020       ??_C@_1DM@KGHDGBCM@?$AAa?$AAp?$AAi?$AA?9?$AAm?$AAs?$AA?9?$AAw?$AAi?$AAn?$AA?9?$AAc?$AAo?$AAr?$AAe?$AA?9?$AAx?$AAs?$AAt?$AAa?$AAt?$AAe?$AA?9?$AAl?$AA2?$AA?9?$AA1?$AA?9?$AA0?$AA?$AA@ 0000000180018020     libucrt:winapi_thunks.obj
 0002:00002060       ??_C@_1EO@IJIOEFOH@?$AAa?$AAp?$AAi?$AA?9?$AAm?$AAs?$AA?9?$AAw?$AAi?$AAn?$AA?9?$AAr?$AAt?$AAc?$AAo?$AAr?$AAe?$AA?9?$AAn?$AAt?$AAu?$AAs?$AAe?$AAr?$AA?9?$AAw?$AAi?$AAn?$AAd?$AAo?$AAw?$AA?9@ 0000000180018060     libucrt:winapi_thunks.obj
 0002:000020b0       ??_C@_1FG@HHGEKANL@?$AAa?$AAp?$AAi?$AA?9?$AAm?$AAs?$AA?9?$AAw?$AAi?$AAn?$AA?9?$AAs?$AAe?$AAc?$AAu?$AAr?$AAi?$AAt?$AAy?$AA?9?$AAs?$AAy?$AAs?$AAt?$AAe?$AAm?$AAf?$AAu?$AAn?$AAc?$AAt?$AAi@ 00000001800180b0     libucrt:winapi_thunks.obj
 0002:00002110       ??_C@_1EG@DBIOJECG@?$AAe?$AAx?$AAt?$AA?9?$AAm?$AAs?$AA?9?$AAw?$AAi?$AAn?$AA?9?$AAn?$AAt?$AAu?$AAs?$AAe?$AAr?$AA?9?$AAd?$AAi?$AAa?$AAl?$AAo?$AAg?$AAb?$AAo?$AAx?$AA?9?$AAl?$AA1?$AA?9?$AA1@ 0000000180018110     libucrt:winapi_thunks.obj
 0002:00002160       ??_C@_1EO@FIHMJCLF@?$AAe?$AAx?$AAt?$AA?9?$AAm?$AAs?$AA?9?$AAw?$AAi?$AAn?$AA?9?$AAn?$AAt?$AAu?$AAs?$AAe?$AAr?$AA?9?$AAw?$AAi?$AAn?$AAd?$AAo?$AAw?$AAs?$AAt?$AAa?$AAt?$AAi?$AAo?$AAn?$AA?9@ 0000000180018160     libucrt:winapi_thunks.obj
 0002:000021b0       ??_C@_1BC@DNHGCMLG@?$AAa?$AAd?$AAv?$AAa?$AAp?$AAi?$AA3?$AA2?$AA?$AA@ 00000001800181b0     libucrt:winapi_thunks.obj
 0002:000021c8       ??_C@_1BC@GDMECMAK@?$AAk?$AAe?$AAr?$AAn?$AAe?$AAl?$AA3?$AA2?$AA?$AA@ 00000001800181c8     libucrt:winapi_thunks.obj
 0002:000021e0       ??_C@_1M@OAIMIKLP@?$AAn?$AAt?$AAd?$AAl?$AAl?$AA?$AA@ 00000001800181e0     libucrt:winapi_thunks.obj
 0002:000021f0       ??_C@_1EG@DPGNFKGC@?$AAa?$AAp?$AAi?$AA?9?$AAm?$AAs?$AA?9?$AAw?$AAi?$AAn?$AA?9?$AAa?$AAp?$AAp?$AAm?$AAo?$AAd?$AAe?$AAl?$AA?9?$AAr?$AAu?$AAn?$AAt?$AAi?$AAm?$AAe?$AA?9?$AAl?$AA1?$AA?9?$AA1@ 00000001800181f0     libucrt:winapi_thunks.obj
 0002:00002238       ??_C@_1O@BCCLBEOE@?$AAu?$AAs?$AAe?$AAr?$AA3?$AA2?$AA?$AA@ 0000000180018238     libucrt:winapi_thunks.obj
 0002:00002248       ??_C@_1BA@PFFKHIOG@?$AAa?$AAp?$AAi?$AA?9?$AAm?$AAs?$AA?9?$AA?$AA@ 0000000180018248     libucrt:winapi_thunks.obj
 0002:00002258       ??_C@_1BA@IAIFMGEF@?$AAe?$AAx?$AAt?$AA?9?$AAm?$AAs?$AA?9?$AA?$AA@ 0000000180018258     libucrt:winapi_thunks.obj
 0002:00002270       ??_C@_0BA@FHFNEAED@AreFileApisANSI?$AA@ 0000000180018270     libucrt:winapi_thunks.obj
 0002:00002288       ??_C@_08KNHFBNJ@FlsAlloc?$AA@ 0000000180018288     libucrt:winapi_thunks.obj
 0002:000022a0       ??_C@_07PEJMOBNF@FlsFree?$AA@ 00000001800182a0     libucrt:winapi_thunks.obj
 0002:000022b0       ??_C@_0M@GDNOONDI@FlsGetValue?$AA@ 00000001800182b0     libucrt:winapi_thunks.obj
 0002:000022c8       ??_C@_0M@JCPCPOEF@FlsSetValue?$AA@ 00000001800182c8     libucrt:winapi_thunks.obj
 0002:000022e0       ??_C@_0BA@HNOPNCHB@GetActiveWindow?$AA@ 00000001800182e0     libucrt:winapi_thunks.obj
 0002:000022f8       ??_C@_0BD@HHGDFDBJ@GetLastActivePopup?$AA@ 00000001800182f8     libucrt:winapi_thunks.obj
 0002:00002318       ??_C@_0BI@DFKBFLJE@GetProcessWindowStation?$AA@ 0000000180018318     libucrt:winapi_thunks.obj
 0002:00002338       ??_C@_0BK@DEKFELLI@GetUserObjectInformationW?$AA@ 0000000180018338     libucrt:winapi_thunks.obj
 0002:00002360       ??_C@_0BM@HCFOFFN@InitializeCriticalSectionEx?$AA@ 0000000180018360     libucrt:winapi_thunks.obj
 0002:00002388       ??_C@_0O@KKBNKAPF@LCMapStringEx?$AA@ 0000000180018388     libucrt:winapi_thunks.obj
 0002:000023a0       ??_C@_0BB@HBDEELFH@LocaleNameToLCID?$AA@ 00000001800183a0     libucrt:winapi_thunks.obj
 0002:000023c0       ??_C@_0M@CHKKJDAI@MessageBoxA?$AA@ 00000001800183c0     libucrt:winapi_thunks.obj
 0002:000023d8       ??_C@_0M@DLDCCGNP@MessageBoxW?$AA@ 00000001800183d8     libucrt:winapi_thunks.obj
 0002:000023e8       ??_C@_0CF@OJOFEIGO@AppPolicyGetProcessTerminationMe@ 00000001800183e8     libucrt:winapi_thunks.obj
 0002:00002418       ??_C@_0CE@OICFMIKE@AppPolicyGetShowDeveloperDiagnos@ 0000000180018418     libucrt:winapi_thunks.obj
 0002:00002440       ??_C@_0BL@ODDJNEDA@AppPolicyGetWindowingModel?$AA@ 0000000180018440     libucrt:winapi_thunks.obj
 0002:0000245c       ??_C@_03OEIAHPBN@INF?$AA@  000000018001845c     libucrt:cvt.obj
 0002:00002460       ??_C@_03OJHLLCGB@inf?$AA@  0000000180018460     libucrt:cvt.obj
 0002:00002464       ??_C@_03LKNCIKJB@NAN?$AA@  0000000180018464     libucrt:cvt.obj
 0002:00002468       ??_C@_03LHCJEHON@nan?$AA@  0000000180018468     libucrt:cvt.obj
 0002:00002470       ??_C@_09OFJJIMPC@NAN?$CISNAN?$CJ?$AA@ 0000000180018470     libucrt:cvt.obj
 0002:00002480       ??_C@_09IPFBKMDL@nan?$CIsnan?$CJ?$AA@ 0000000180018480     libucrt:cvt.obj
 0002:00002490       ??_C@_08IKHNHAJ@NAN?$CIIND?$CJ?$AA@ 0000000180018490     libucrt:cvt.obj
 0002:000024a0       ??_C@_08OFCDMILK@nan?$CIind?$CJ?$AA@ 00000001800184a0     libucrt:cvt.obj
 0002:000024ac       ??_C@_05KLBDPFGC@e?$CL000?$AA@ 00000001800184ac     libucrt:cvt.obj
 0002:000024c0       __newctype                 00000001800184c0     libucrt:ctype.obj
 0002:000027c0       __newclmap                 00000001800187c0     libucrt:ctype.obj
 0002:00002940       __newcumap                 0000000180018940     libucrt:ctype.obj
 0002:00002ac0       _wctype                    0000000180018ac0     libucrt:ctype.obj
 0002:00002cc4       ??_C@_15PJPFLCCM@?$AAu?$AAk?$AA?$AA@ 0000000180018cc4     libucrt:get_qualified_locale.obj
 0002:00003b10       ??_C@_15EMKDOKLE@?$AAa?$AAr?$AA?$AA@ 0000000180019b10     libucrt:lcidtoname_downlevel.obj
 0002:00003b18       ??_C@_15KNPADPLH@?$AAb?$AAg?$AA?$AA@ 0000000180019b18     libucrt:lcidtoname_downlevel.obj
 0002:00003b20       ??_C@_15EDMHLDMO@?$AAc?$AAa?$AA?$AA@ 0000000180019b20     libucrt:lcidtoname_downlevel.obj
 0002:00003b28       ??_C@_1O@BPEAJADD@?$AAz?$AAh?$AA?9?$AAC?$AAH?$AAS?$AA?$AA@ 0000000180019b28     libucrt:lcidtoname_downlevel.obj
 0002:00003b38       ??_C@_15LJNHCMNK@?$AAc?$AAs?$AA?$AA@ 0000000180019b38     libucrt:lcidtoname_downlevel.obj
 0002:00003b40       ??_C@_15FOMCIDHG@?$AAd?$AAa?$AA?$AA@ 0000000180019b40     libucrt:lcidtoname_downlevel.obj
 0002:00003b48       ??_C@_15NBKABECB@?$AAd?$AAe?$AA?$AA@ 0000000180019b48     libucrt:lcidtoname_downlevel.obj
 0002:00003b50       ??_C@_15GHPEIIAO@?$AAe?$AAl?$AA?$AA@ 0000000180019b50     libucrt:lcidtoname_downlevel.obj
 0002:00003b58       ??_C@_15MNPNEAIF@?$AAe?$AAn?$AA?$AA@ 0000000180019b58     libucrt:lcidtoname_downlevel.obj
 0002:00003b60       ??_C@_15GPIOMPMH@?$AAe?$AAs?$AA?$AA@ 0000000180019b60     libucrt:lcidtoname_downlevel.obj
 0002:00003b68       ??_C@_15NGLOAKJC@?$AAf?$AAi?$AA?$AA@ 0000000180019b68     libucrt:lcidtoname_downlevel.obj
 0002:00003b70       ??_C@_15FBKGNKAM@?$AAf?$AAr?$AA?$AA@ 0000000180019b70     libucrt:lcidtoname_downlevel.obj
 0002:00003b78       ??_C@_15KGGCNEFK@?$AAh?$AAe?$AA?$AA@ 0000000180019b78     libucrt:lcidtoname_downlevel.obj
 0002:00003b80       ??_C@_15PGHLIDMF@?$AAh?$AAu?$AA?$AA@ 0000000180019b80     libucrt:lcidtoname_downlevel.obj
 0002:00003b88       ??_C@_15BIEMAPLM@?$AAi?$AAs?$AA?$AA@ 0000000180019b88     libucrt:lcidtoname_downlevel.obj
 0002:00003b90       ??_C@_15IFJLDHAF@?$AAi?$AAt?$AA?$AA@ 0000000180019b90     libucrt:lcidtoname_downlevel.obj
 0002:00003b98       ??_C@_15GEMIOCAG@?$AAj?$AAa?$AA?$AA@ 0000000180019b98     libucrt:lcidtoname_downlevel.obj
 0002:00003ba0       ??_C@_15EPELEGJA@?$AAk?$AAo?$AA?$AA@ 0000000180019ba0     libucrt:lcidtoname_downlevel.obj
 0002:00003ba8       ??_C@_15NDDHIMN@?$AAn?$AAl?$AA?$AA@ 0000000180019ba8     libucrt:lcidtoname_downlevel.obj
 0002:00003bb0       ??_C@_15BPIGNHCD@?$AAn?$AAo?$AA?$AA@ 0000000180019bb0     libucrt:lcidtoname_downlevel.obj
 0002:00003bb8       ??_C@_15DEOPBLCG@?$AAp?$AAl?$AA?$AA@ 0000000180019bb8     libucrt:lcidtoname_downlevel.obj
 0002:00003bc0       ??_C@_15KBECGEFG@?$AAp?$AAt?$AA?$AA@ 0000000180019bc0     libucrt:lcidtoname_downlevel.obj
 0002:00003bc8       ??_C@_15GLJCBFMD@?$AAr?$AAo?$AA?$AA@ 0000000180019bc8     libucrt:lcidtoname_downlevel.obj
 0002:00003bd0       ??_C@_15FEDGKCDI@?$AAr?$AAu?$AA?$AA@ 0000000180019bd0     libucrt:lcidtoname_downlevel.obj
 0002:00003bd8       ??_C@_15GLKMLLHM@?$AAh?$AAr?$AA?$AA@ 0000000180019bd8     libucrt:lcidtoname_downlevel.obj
 0002:00003be0       ??_C@_15CPKMFBDB@?$AAs?$AAk?$AA?$AA@ 0000000180019be0     libucrt:lcidtoname_downlevel.obj
 0002:00003be8       ??_C@_15BAAIOGMK@?$AAs?$AAq?$AA?$AA@ 0000000180019be8     libucrt:lcidtoname_downlevel.obj
 0002:00003bf0       ??_C@_15INNPNOHD@?$AAs?$AAv?$AA?$AA@ 0000000180019bf0     libucrt:lcidtoname_downlevel.obj
 0002:00003bf8       ??_C@_15CABMMOGH@?$AAt?$AAh?$AA?$AA@ 0000000180019bf8     libucrt:lcidtoname_downlevel.obj
 0002:00003c00       ??_C@_15BPLIHJJM@?$AAt?$AAr?$AA?$AA@ 0000000180019c00     libucrt:lcidtoname_downlevel.obj
 0002:00003c08       ??_C@_15NEOEKKDJ@?$AAu?$AAr?$AA?$AA@ 0000000180019c08     libucrt:lcidtoname_downlevel.obj
 0002:00003c10       ??_C@_15NFICGAJK@?$AAi?$AAd?$AA?$AA@ 0000000180019c10     libucrt:lcidtoname_downlevel.obj
 0002:00003c18       ??_C@_15HPJPHDM@?$AAb?$AAe?$AA?$AA@ 0000000180019c18     libucrt:lcidtoname_downlevel.obj
 0002:00003c20       ??_C@_15LCHLGJII@?$AAs?$AAl?$AA?$AA@ 0000000180019c20     libucrt:lcidtoname_downlevel.obj
 0002:00003c28       ??_C@_15PCFJPHHO@?$AAe?$AAt?$AA?$AA@ 0000000180019c28     libucrt:lcidtoname_downlevel.obj
 0002:00003c30       ??_C@_15HPFPGODN@?$AAl?$AAv?$AA?$AA@ 0000000180019c30     libucrt:lcidtoname_downlevel.obj
 0002:00003c38       ??_C@_15NFFGKGLG@?$AAl?$AAt?$AA?$AA@ 0000000180019c38     libucrt:lcidtoname_downlevel.obj
 0002:00003c40       ??_C@_15BDAKCCHN@?$AAf?$AAa?$AA?$AA@ 0000000180019c40     libucrt:lcidtoname_downlevel.obj
 0002:00003c48       ??_C@_15NFGIAIAJ@?$AAv?$AAi?$AA?$AA@ 0000000180019c48     libucrt:lcidtoname_downlevel.obj
 0002:00003c50       ??_C@_15LMKNDMHN@?$AAh?$AAy?$AA?$AA@ 0000000180019c50     libucrt:lcidtoname_downlevel.obj
 0002:00003c58       ??_C@_15IJBHMCFL@?$AAa?$AAz?$AA?$AA@ 0000000180019c58     libucrt:lcidtoname_downlevel.obj
 0002:00003c60       ??_C@_15EKOFJABL@?$AAe?$AAu?$AA?$AA@ 0000000180019c60     libucrt:lcidtoname_downlevel.obj
 0002:00003c68       ??_C@_15BGHADCNK@?$AAm?$AAk?$AA?$AA@ 0000000180019c68     libucrt:lcidtoname_downlevel.obj
 0002:00003c70       ??_C@_15JDNICKHM@?$AAa?$AAf?$AA?$AA@ 0000000180019c70     libucrt:lcidtoname_downlevel.obj
 0002:00003c78       ??_C@_15KPJEDBKD@?$AAk?$AAa?$AA?$AA@ 0000000180019c78     libucrt:lcidtoname_downlevel.obj
 0002:00003c80       ??_C@_15PDNFFFEO@?$AAf?$AAo?$AA?$AA@ 0000000180019c80     libucrt:lcidtoname_downlevel.obj
 0002:00003c88       ??_C@_15OMLEGLOC@?$AAh?$AAi?$AA?$AA@ 0000000180019c88     libucrt:lcidtoname_downlevel.obj
 0002:00003c90       ??_C@_15IDNNENKK@?$AAm?$AAs?$AA?$AA@ 0000000180019c90     libucrt:lcidtoname_downlevel.obj
 0002:00003c98       ??_C@_15MACJNBMH@?$AAk?$AAk?$AA?$AA@ 0000000180019c98     libucrt:lcidtoname_downlevel.obj
 0002:00003ca0       ??_C@_15DKDJEOND@?$AAk?$AAy?$AA?$AA@ 0000000180019ca0     libucrt:lcidtoname_downlevel.obj
 0002:00003ca8       ??_C@_15DFGDLJBG@?$AAs?$AAw?$AA?$AA@ 0000000180019ca8     libucrt:lcidtoname_downlevel.obj
 0002:00003cb0       ??_C@_15BBFAICNG@?$AAu?$AAz?$AA?$AA@ 0000000180019cb0     libucrt:lcidtoname_downlevel.obj
 0002:00003cb8       ??_C@_15DKNDCGEA@?$AAt?$AAt?$AA?$AA@ 0000000180019cb8     libucrt:lcidtoname_downlevel.obj
 0002:00003cc0       ??_C@_15MGIFMDPL@?$AAp?$AAa?$AA?$AA@ 0000000180019cc0     libucrt:lcidtoname_downlevel.obj
 0002:00003cc8       ??_C@_15HCNDBBA@?$AAg?$AAu?$AA?$AA@ 0000000180019cc8     libucrt:lcidtoname_downlevel.obj
 0002:00003cd0       ??_C@_15FNBEIBON@?$AAt?$AAa?$AA?$AA@ 0000000180019cd0     libucrt:lcidtoname_downlevel.obj
 0002:00003cd8       ??_C@_15NCHGBGLK@?$AAt?$AAe?$AA?$AA@ 0000000180019cd8     libucrt:lcidtoname_downlevel.obj
 0002:00003ce0       ??_C@_15PHPHCBPF@?$AAk?$AAn?$AA?$AA@ 0000000180019ce0     libucrt:lcidtoname_downlevel.obj
 0002:00003ce8       ??_C@_15DLGBCKMP@?$AAm?$AAr?$AA?$AA@ 0000000180019ce8     libucrt:lcidtoname_downlevel.obj
 0002:00003cf0       ??_C@_15EABBLBFF@?$AAs?$AAa?$AA?$AA@ 0000000180019cf0     libucrt:lcidtoname_downlevel.obj
 0002:00003cf8       ??_C@_15CBKOMCOI@?$AAm?$AAn?$AA?$AA@ 0000000180019cf8     libucrt:lcidtoname_downlevel.obj
 0002:00003d00       ??_C@_15CKDMCJAF@?$AAg?$AAl?$AA?$AA@ 0000000180019d00     libucrt:lcidtoname_downlevel.obj
 0002:00003d08       ??_C@_17CNJFBPG@?$AAk?$AAo?$AAk?$AA?$AA@ 0000000180019d08     libucrt:lcidtoname_downlevel.obj
 0002:00003d10       ??_C@_17FFBJICPL@?$AAs?$AAy?$AAr?$AA?$AA@ 0000000180019d10     libucrt:lcidtoname_downlevel.obj
 0002:00003d18       ??_C@_17KPNDCPAF@?$AAd?$AAi?$AAv?$AA?$AA@ 0000000180019d18     libucrt:lcidtoname_downlevel.obj
 0002:00003d20       ??_C@_11LOCGONAA@?$AA?$AA@ 0000000180019d20     libucrt:lcidtoname_downlevel.obj
 0002:00003d28       ??_C@_1M@OKAHONE@?$AAa?$AAr?$AA?9?$AAS?$AAA?$AA?$AA@ 0000000180019d28     libucrt:lcidtoname_downlevel.obj
 0002:00003d38       ??_C@_1M@FFFIGIGK@?$AAb?$AAg?$AA?9?$AAB?$AAG?$AA?$AA@ 0000000180019d38     libucrt:lcidtoname_downlevel.obj
 0002:00003d48       ??_C@_1M@BJNKEDC@?$AAc?$AAa?$AA?9?$AAE?$AAS?$AA?$AA@ 0000000180019d48     libucrt:lcidtoname_downlevel.obj
 0002:00003d58       ??_C@_1M@IJJHFJHA@?$AAc?$AAs?$AA?9?$AAC?$AAZ?$AA?$AA@ 0000000180019d58     libucrt:lcidtoname_downlevel.obj
 0002:00003d68       ??_C@_1M@CLPEOBGI@?$AAd?$AAa?$AA?9?$AAD?$AAK?$AA?$AA@ 0000000180019d68     libucrt:lcidtoname_downlevel.obj
 0002:00003d78       ??_C@_1M@MCMADGCB@?$AAd?$AAe?$AA?9?$AAD?$AAE?$AA?$AA@ 0000000180019d78     libucrt:lcidtoname_downlevel.obj
 0002:00003d88       ??_C@_1M@OOCKEMAM@?$AAe?$AAl?$AA?9?$AAG?$AAR?$AA?$AA@ 0000000180019d88     libucrt:lcidtoname_downlevel.obj
 0002:00003d98       ??_C@_1M@DDNJFGID@?$AAf?$AAi?$AA?9?$AAF?$AAI?$AA?$AA@ 0000000180019d98     libucrt:lcidtoname_downlevel.obj
 0002:00003da8       ??_C@_1M@GLIPPMAC@?$AAf?$AAr?$AA?9?$AAF?$AAR?$AA?$AA@ 0000000180019da8     libucrt:lcidtoname_downlevel.obj
 0002:00003db8       ??_C@_1M@GFMCHPE@?$AAh?$AAe?$AA?9?$AAI?$AAL?$AA?$AA@ 0000000180019db8     libucrt:lcidtoname_downlevel.obj
 0002:00003dc8       ??_C@_1M@MHLPGNKM@?$AAh?$AAu?$AA?9?$AAH?$AAU?$AA?$AA@ 0000000180019dc8     libucrt:lcidtoname_downlevel.obj
 0002:00003dd8       ??_C@_1M@LPDDNNPN@?$AAi?$AAs?$AA?9?$AAI?$AAS?$AA?$AA@ 0000000180019dd8     libucrt:lcidtoname_downlevel.obj
 0002:00003de8       ??_C@_1M@MADIPODN@?$AAi?$AAt?$AA?9?$AAI?$AAT?$AA?$AA@ 0000000180019de8     libucrt:lcidtoname_downlevel.obj
 0002:00003df8       ??_C@_1M@IHBJJGG@?$AAn?$AAl?$AA?9?$AAN?$AAL?$AA?$AA@ 0000000180019df8     libucrt:lcidtoname_downlevel.obj
 0002:00003e08       ??_C@_1M@EANAGDL@?$AAn?$AAb?$AA?9?$AAN?$AAO?$AA?$AA@ 0000000180019e08     libucrt:lcidtoname_downlevel.obj
 0002:00003e18       ??_C@_1M@NEIEMEGP@?$AAp?$AAl?$AA?9?$AAP?$AAL?$AA?$AA@ 0000000180019e18     libucrt:lcidtoname_downlevel.obj
 0002:00003e28       ??_C@_1M@BOCFIGEP@?$AAp?$AAt?$AA?9?$AAB?$AAR?$AA?$AA@ 0000000180019e28     libucrt:lcidtoname_downlevel.obj
 0002:00003e38       ??_C@_1M@IMPFOPBG@?$AAr?$AAo?$AA?9?$AAR?$AAO?$AA?$AA@ 0000000180019e38     libucrt:lcidtoname_downlevel.obj
 0002:00003e48       ??_C@_1M@IDNNEJMM@?$AAr?$AAu?$AA?9?$AAR?$AAU?$AA?$AA@ 0000000180019e48     libucrt:lcidtoname_downlevel.obj
 0002:00003e58       ??_C@_1M@LILEEOGM@?$AAh?$AAr?$AA?9?$AAH?$AAR?$AA?$AA@ 0000000180019e58     libucrt:lcidtoname_downlevel.obj
 0002:00003e68       ??_C@_1M@FKIFEHPB@?$AAs?$AAk?$AA?9?$AAS?$AAK?$AA?$AA@ 0000000180019e68     libucrt:lcidtoname_downlevel.obj
 0002:00003e78       ??_C@_1M@LJMAMNPJ@?$AAs?$AAq?$AA?9?$AAA?$AAL?$AA?$AA@ 0000000180019e78     libucrt:lcidtoname_downlevel.obj
 0002:00003e88       ??_C@_1M@GIAKDKJK@?$AAs?$AAv?$AA?9?$AAS?$AAE?$AA?$AA@ 0000000180019e88     libucrt:lcidtoname_downlevel.obj
 0002:00003e98       ??_C@_1M@MKJKIKCL@?$AAt?$AAh?$AA?9?$AAT?$AAH?$AA?$AA@ 0000000180019e98     libucrt:lcidtoname_downlevel.obj
 0002:00003ea8       ??_C@_1M@MFLCCMPB@?$AAt?$AAr?$AA?9?$AAT?$AAR?$AA?$AA@ 0000000180019ea8     libucrt:lcidtoname_downlevel.obj
 0002:00003eb8       ??_C@_1M@OIJHDKJN@?$AAu?$AAr?$AA?9?$AAP?$AAK?$AA?$AA@ 0000000180019eb8     libucrt:lcidtoname_downlevel.obj
 0002:00003ec8       ??_C@_1M@LHIPCIEK@?$AAi?$AAd?$AA?9?$AAI?$AAD?$AA?$AA@ 0000000180019ec8     libucrt:lcidtoname_downlevel.obj
 0002:00003ed8       ??_C@_1M@MFMOBGI@?$AAu?$AAk?$AA?9?$AAU?$AAA?$AA?$AA@ 0000000180019ed8     libucrt:lcidtoname_downlevel.obj
 0002:00003ee8       ??_C@_1M@OBGLJIPL@?$AAb?$AAe?$AA?9?$AAB?$AAY?$AA?$AA@ 0000000180019ee8     libucrt:lcidtoname_downlevel.obj
 0002:00003ef8       ??_C@_1M@BCFAJEAD@?$AAs?$AAl?$AA?9?$AAS?$AAI?$AA?$AA@ 0000000180019ef8     libucrt:lcidtoname_downlevel.obj
 0002:00003f08       ??_C@_1M@FKFFEDDN@?$AAe?$AAt?$AA?9?$AAE?$AAE?$AA?$AA@ 0000000180019f08     libucrt:lcidtoname_downlevel.obj
 0002:00003f18       ??_C@_1M@KGKKAACI@?$AAl?$AAv?$AA?9?$AAL?$AAV?$AA?$AA@ 0000000180019f18     libucrt:lcidtoname_downlevel.obj
 0002:00003f28       ??_C@_1M@IFGBIJO@?$AAl?$AAt?$AA?9?$AAL?$AAT?$AA?$AA@ 0000000180019f28     libucrt:lcidtoname_downlevel.obj
 0002:00003f38       ??_C@_1M@FGEAHEDM@?$AAf?$AAa?$AA?9?$AAI?$AAR?$AA?$AA@ 0000000180019f38     libucrt:lcidtoname_downlevel.obj
 0002:00003f48       ??_C@_1M@KBMAIBFN@?$AAv?$AAi?$AA?9?$AAV?$AAN?$AA?$AA@ 0000000180019f48     libucrt:lcidtoname_downlevel.obj
 0002:00003f58       ??_C@_1M@GPCBKDJK@?$AAh?$AAy?$AA?9?$AAA?$AAM?$AA?$AA@ 0000000180019f58     libucrt:lcidtoname_downlevel.obj
 0002:00003f68       ??_C@_1BG@BECMDDJB@?$AAa?$AAz?$AA?9?$AAA?$AAZ?$AA?9?$AAL?$AAa?$AAt?$AAn?$AA?$AA@ 0000000180019f68     libucrt:lcidtoname_downlevel.obj
 0002:00003f80       ??_C@_1M@MAOFCAEA@?$AAe?$AAu?$AA?9?$AAE?$AAS?$AA?$AA@ 0000000180019f80     libucrt:lcidtoname_downlevel.obj
 0002:00003f90       ??_C@_1M@IGHABKPI@?$AAm?$AAk?$AA?9?$AAM?$AAK?$AA?$AA@ 0000000180019f90     libucrt:lcidtoname_downlevel.obj
 0002:00003fa0       ??_C@_1M@IAIGNEJG@?$AAt?$AAn?$AA?9?$AAZ?$AAA?$AA?$AA@ 0000000180019fa0     libucrt:lcidtoname_downlevel.obj
 0002:00003fb0       ??_C@_1M@IIJCOJFA@?$AAx?$AAh?$AA?9?$AAZ?$AAA?$AA?$AA@ 0000000180019fb0     libucrt:lcidtoname_downlevel.obj
 0002:00003fc0       ??_C@_1M@LGPJHNJH@?$AAz?$AAu?$AA?9?$AAZ?$AAA?$AA?$AA@ 0000000180019fc0     libucrt:lcidtoname_downlevel.obj
 0002:00003fd0       ??_C@_1M@HOKAOIO@?$AAa?$AAf?$AA?9?$AAZ?$AAA?$AA?$AA@ 0000000180019fd0     libucrt:lcidtoname_downlevel.obj
 0002:00003fe0       ??_C@_1M@DPCLHLIE@?$AAk?$AAa?$AA?9?$AAG?$AAE?$AA?$AA@ 0000000180019fe0     libucrt:lcidtoname_downlevel.obj
 0002:00003ff0       ??_C@_1M@BLKMHJBI@?$AAf?$AAo?$AA?9?$AAF?$AAO?$AA?$AA@ 0000000180019ff0     libucrt:lcidtoname_downlevel.obj
 0002:00004000       ??_C@_1M@LGGJAPPB@?$AAh?$AAi?$AA?9?$AAI?$AAN?$AA?$AA@ 000000018001a000     libucrt:lcidtoname_downlevel.obj
 0002:00004010       ??_C@_1M@FIKPIHFE@?$AAm?$AAt?$AA?9?$AAM?$AAT?$AA?$AA@ 000000018001a010     libucrt:lcidtoname_downlevel.obj
 0002:00004020       ??_C@_1M@HEGGPBFA@?$AAs?$AAe?$AA?9?$AAN?$AAO?$AA?$AA@ 000000018001a020     libucrt:lcidtoname_downlevel.obj
 0002:00004030       ??_C@_1M@EIBJEEPA@?$AAm?$AAs?$AA?9?$AAM?$AAY?$AA?$AA@ 000000018001a030     libucrt:lcidtoname_downlevel.obj
 0002:00004040       ??_C@_1M@FHLBGMPP@?$AAk?$AAk?$AA?9?$AAK?$AAZ?$AA?$AA@ 000000018001a040     libucrt:lcidtoname_downlevel.obj
 0002:00004050       ??_C@_1M@NGJJLCGI@?$AAk?$AAy?$AA?9?$AAK?$AAG?$AA?$AA@ 000000018001a050     libucrt:lcidtoname_downlevel.obj
 0002:00004060       ??_C@_1M@GIENNBFC@?$AAs?$AAw?$AA?9?$AAK?$AAE?$AA?$AA@ 000000018001a060     libucrt:lcidtoname_downlevel.obj
 0002:00004070       ??_C@_1BG@NDGMJIMJ@?$AAu?$AAz?$AA?9?$AAU?$AAZ?$AA?9?$AAL?$AAa?$AAt?$AAn?$AA?$AA@ 000000018001a070     libucrt:lcidtoname_downlevel.obj
 0002:00004088       ??_C@_1M@IDCCIHBC@?$AAt?$AAt?$AA?9?$AAR?$AAU?$AA?$AA@ 000000018001a088     libucrt:lcidtoname_downlevel.obj
 0002:00004098       ??_C@_1M@LOICPMOJ@?$AAb?$AAn?$AA?9?$AAI?$AAN?$AA?$AA@ 000000018001a098     libucrt:lcidtoname_downlevel.obj
 0002:000040a8       ??_C@_1M@KPKKNEAH@?$AAp?$AAa?$AA?9?$AAI?$AAN?$AA?$AA@ 000000018001a0a8     libucrt:lcidtoname_downlevel.obj
 0002:000040b8       ??_C@_1M@PJGPPBOG@?$AAg?$AAu?$AA?9?$AAI?$AAN?$AA?$AA@ 000000018001a0b8     libucrt:lcidtoname_downlevel.obj
 0002:000040c8       ??_C@_1M@KMKMOPHI@?$AAt?$AAa?$AA?9?$AAI?$AAN?$AA?$AA@ 000000018001a0c8     libucrt:lcidtoname_downlevel.obj
 0002:000040d8       ??_C@_1M@KFEHEPAC@?$AAt?$AAe?$AA?9?$AAI?$AAN?$AA?$AA@ 000000018001a0d8     libucrt:lcidtoname_downlevel.obj
 0002:000040e8       ??_C@_1M@CDCLMGHI@?$AAk?$AAn?$AA?9?$AAI?$AAN?$AA?$AA@ 000000018001a0e8     libucrt:lcidtoname_downlevel.obj
 0002:000040f8       ??_C@_1M@MIODLDKF@?$AAm?$AAl?$AA?9?$AAI?$AAN?$AA?$AA@ 000000018001a0f8     libucrt:lcidtoname_downlevel.obj
 0002:00004108       ??_C@_1M@PBIEACPO@?$AAm?$AAr?$AA?9?$AAI?$AAN?$AA?$AA@ 000000018001a108     libucrt:lcidtoname_downlevel.obj
 0002:00004118       ??_C@_1M@NIDEAGPH@?$AAs?$AAa?$AA?9?$AAI?$AAN?$AA?$AA@ 000000018001a118     libucrt:lcidtoname_downlevel.obj
 0002:00004128       ??_C@_1M@FHIHCBIO@?$AAm?$AAn?$AA?9?$AAM?$AAN?$AA?$AA@ 000000018001a128     libucrt:lcidtoname_downlevel.obj
 0002:00004138       ??_C@_1M@JAIJPENP@?$AAc?$AAy?$AA?9?$AAG?$AAB?$AA?$AA@ 000000018001a138     libucrt:lcidtoname_downlevel.obj
 0002:00004148       ??_C@_1M@PHGFBEPN@?$AAg?$AAl?$AA?9?$AAE?$AAS?$AA?$AA@ 000000018001a148     libucrt:lcidtoname_downlevel.obj
 0002:00004158       ??_C@_1O@KPIPDNCP@?$AAk?$AAo?$AAk?$AA?9?$AAI?$AAN?$AA?$AA@ 000000018001a158     libucrt:lcidtoname_downlevel.obj
 0002:00004168       ??_C@_1O@KNHJLDJA@?$AAs?$AAy?$AAr?$AA?9?$AAS?$AAY?$AA?$AA@ 000000018001a168     libucrt:lcidtoname_downlevel.obj
 0002:00004178       ??_C@_1O@MKEKBLAH@?$AAd?$AAi?$AAv?$AA?9?$AAM?$AAV?$AA?$AA@ 000000018001a178     libucrt:lcidtoname_downlevel.obj
 0002:00004188       ??_C@_1O@OHDCKDDF@?$AAq?$AAu?$AAz?$AA?9?$AAB?$AAO?$AA?$AA@ 000000018001a188     libucrt:lcidtoname_downlevel.obj
 0002:00004198       ??_C@_1M@LEPJNLFD@?$AAn?$AAs?$AA?9?$AAZ?$AAA?$AA?$AA@ 000000018001a198     libucrt:lcidtoname_downlevel.obj
 0002:000041a8       ??_C@_1M@OMLEIIJB@?$AAm?$AAi?$AA?9?$AAN?$AAZ?$AA?$AA@ 000000018001a1a8     libucrt:lcidtoname_downlevel.obj
 0002:000041b8       ??_C@_1M@PMPEAILG@?$AAa?$AAr?$AA?9?$AAI?$AAQ?$AA?$AA@ 000000018001a1b8     libucrt:lcidtoname_downlevel.obj
 0002:000041c8       ??_C@_1M@CNKPNOEE@?$AAd?$AAe?$AA?9?$AAC?$AAH?$AA?$AA@ 000000018001a1c8     libucrt:lcidtoname_downlevel.obj
 0002:000041d8       ??_C@_1M@LKMGMLKO@?$AAe?$AAn?$AA?9?$AAG?$AAB?$AA?$AA@ 000000018001a1d8     libucrt:lcidtoname_downlevel.obj
 0002:000041e8       ??_C@_1M@PGKJFFGL@?$AAe?$AAs?$AA?9?$AAM?$AAX?$AA?$AA@ 000000018001a1e8     libucrt:lcidtoname_downlevel.obj
 0002:000041f8       ??_C@_1M@DNNANBDC@?$AAf?$AAr?$AA?9?$AAB?$AAE?$AA?$AA@ 000000018001a1f8     libucrt:lcidtoname_downlevel.obj
 0002:00004208       ??_C@_1M@HLGMDFHM@?$AAi?$AAt?$AA?9?$AAC?$AAH?$AA?$AA@ 000000018001a208     libucrt:lcidtoname_downlevel.obj
 0002:00004218       ??_C@_1M@CLLBGJH@?$AAn?$AAl?$AA?9?$AAB?$AAE?$AA?$AA@ 000000018001a218     libucrt:lcidtoname_downlevel.obj
 0002:00004228       ??_C@_1M@BODBOGLF@?$AAn?$AAn?$AA?9?$AAN?$AAO?$AA?$AA@ 000000018001a228     libucrt:lcidtoname_downlevel.obj
 0002:00004238       ??_C@_1M@HFFAHKAD@?$AAp?$AAt?$AA?9?$AAP?$AAT?$AA?$AA@ 000000018001a238     libucrt:lcidtoname_downlevel.obj
 0002:00004248       ??_C@_1BG@LNOAKHIE@?$AAs?$AAr?$AA?9?$AAS?$AAP?$AA?9?$AAL?$AAa?$AAt?$AAn?$AA?$AA@ 000000018001a248     libucrt:lcidtoname_downlevel.obj
 0002:00004260       ??_C@_1M@HBMHBGAK@?$AAs?$AAv?$AA?9?$AAF?$AAI?$AA?$AA@ 000000018001a260     libucrt:lcidtoname_downlevel.obj
 0002:00004270       ??_C@_1BG@DGCJGJBE@?$AAa?$AAz?$AA?9?$AAA?$AAZ?$AA?9?$AAC?$AAy?$AAr?$AAl?$AA?$AA@ 000000018001a270     libucrt:lcidtoname_downlevel.obj
 0002:00004288       ??_C@_1M@KEJDAAHB@?$AAs?$AAe?$AA?9?$AAS?$AAE?$AA?$AA@ 000000018001a288     libucrt:lcidtoname_downlevel.obj
 0002:00004298       ??_C@_1M@HEIBJJAD@?$AAm?$AAs?$AA?9?$AAB?$AAN?$AA?$AA@ 000000018001a298     libucrt:lcidtoname_downlevel.obj
 0002:000042a8       ??_C@_1BG@PBGJMCEM@?$AAu?$AAz?$AA?9?$AAU?$AAZ?$AA?9?$AAC?$AAy?$AAr?$AAl?$AA?$AA@ 000000018001a2a8     libucrt:lcidtoname_downlevel.obj
 0002:000042c0       ??_C@_1O@LAOBCMDF@?$AAq?$AAu?$AAz?$AA?9?$AAE?$AAC?$AA?$AA@ 000000018001a2c0     libucrt:lcidtoname_downlevel.obj
 0002:000042d0       ??_C@_1M@POEEMAIO@?$AAa?$AAr?$AA?9?$AAE?$AAG?$AA?$AA@ 000000018001a2d0     libucrt:lcidtoname_downlevel.obj
 0002:000042e0       ??_C@_1M@EFAKDEDL@?$AAz?$AAh?$AA?9?$AAH?$AAK?$AA?$AA@ 000000018001a2e0     libucrt:lcidtoname_downlevel.obj
 0002:000042f0       ??_C@_1M@HKKIJHGI@?$AAd?$AAe?$AA?9?$AAA?$AAT?$AA?$AA@ 000000018001a2f0     libucrt:lcidtoname_downlevel.obj
 0002:00004300       ??_C@_1M@KBFBEHJF@?$AAe?$AAn?$AA?9?$AAA?$AAU?$AA?$AA@ 000000018001a300     libucrt:lcidtoname_downlevel.obj
 0002:00004310       ??_C@_1M@MNPLFAAH@?$AAe?$AAs?$AA?9?$AAE?$AAS?$AA?$AA@ 000000018001a310     libucrt:lcidtoname_downlevel.obj
 0002:00004320       ??_C@_1M@HJOOJFMA@?$AAf?$AAr?$AA?9?$AAC?$AAA?$AA?$AA@ 000000018001a320     libucrt:lcidtoname_downlevel.obj
 0002:00004330       ??_C@_1BG@JPOFPNAB@?$AAs?$AAr?$AA?9?$AAS?$AAP?$AA?9?$AAC?$AAy?$AAr?$AAl?$AA?$AA@ 000000018001a330     libucrt:lcidtoname_downlevel.obj
 0002:00004348       ??_C@_1M@LNFOCMOB@?$AAs?$AAe?$AA?9?$AAF?$AAI?$AA?$AA@ 000000018001a348     libucrt:lcidtoname_downlevel.obj
 0002:00004358       ??_C@_1O@MGJBOAMB@?$AAq?$AAu?$AAz?$AA?9?$AAP?$AAE?$AA?$AA@ 000000018001a358     libucrt:lcidtoname_downlevel.obj
 0002:00004368       ??_C@_1M@GJINLBOK@?$AAa?$AAr?$AA?9?$AAL?$AAY?$AA?$AA@ 000000018001a368     libucrt:lcidtoname_downlevel.obj
 0002:00004378       ??_C@_1M@GGMNHJNL@?$AAz?$AAh?$AA?9?$AAS?$AAG?$AA?$AA@ 000000018001a378     libucrt:lcidtoname_downlevel.obj
 0002:00004388       ??_C@_1M@HOIKODND@?$AAd?$AAe?$AA?9?$AAL?$AAU?$AA?$AA@ 000000018001a388     libucrt:lcidtoname_downlevel.obj
 0002:00004398       ??_C@_1M@DDOCCGFG@?$AAe?$AAn?$AA?9?$AAC?$AAA?$AA?$AA@ 000000018001a398     libucrt:lcidtoname_downlevel.obj
 0002:000043a8       ??_C@_1M@BNOEMJLF@?$AAe?$AAs?$AA?9?$AAG?$AAT?$AA?$AA@ 000000018001a3a8     libucrt:lcidtoname_downlevel.obj
 0002:000043b8       ??_C@_1M@EOGNKEK@?$AAf?$AAr?$AA?9?$AAC?$AAH?$AA?$AA@ 000000018001a3b8     libucrt:lcidtoname_downlevel.obj
 0002:000043c8       ??_C@_1M@FLIDJFHL@?$AAh?$AAr?$AA?9?$AAB?$AAA?$AA?$AA@ 000000018001a3c8     libucrt:lcidtoname_downlevel.obj
 0002:000043d8       ??_C@_1O@FMCELNAJ@?$AAs?$AAm?$AAj?$AA?9?$AAN?$AAO?$AA?$AA@ 000000018001a3d8     libucrt:lcidtoname_downlevel.obj
 0002:000043e8       ??_C@_1M@JHGLJMGJ@?$AAa?$AAr?$AA?9?$AAD?$AAZ?$AA?$AA@ 000000018001a3e8     libucrt:lcidtoname_downlevel.obj
 0002:000043f8       ??_C@_1M@JKKFDCNP@?$AAz?$AAh?$AA?9?$AAM?$AAO?$AA?$AA@ 000000018001a3f8     libucrt:lcidtoname_downlevel.obj
 0002:00004408       ??_C@_1M@GEEFALPE@?$AAd?$AAe?$AA?9?$AAL?$AAI?$AA?$AA@ 000000018001a408     libucrt:lcidtoname_downlevel.obj
 0002:00004418       ??_C@_1M@IGEOFBG@?$AAe?$AAn?$AA?9?$AAN?$AAZ?$AA?$AA@ 000000018001a418     libucrt:lcidtoname_downlevel.obj
 0002:00004428       ??_C@_1M@KDBONEHP@?$AAe?$AAs?$AA?9?$AAC?$AAR?$AA?$AA@ 000000018001a428     libucrt:lcidtoname_downlevel.obj
 0002:00004438       ??_C@_1M@FHMDOHNN@?$AAf?$AAr?$AA?9?$AAL?$AAU?$AA?$AA@ 000000018001a438     libucrt:lcidtoname_downlevel.obj
 0002:00004448       ??_C@_1BG@NFKKMAFG@?$AAb?$AAs?$AA?9?$AAB?$AAA?$AA?9?$AAL?$AAa?$AAt?$AAn?$AA?$AA@ 000000018001a448     libucrt:lcidtoname_downlevel.obj
 0002:00004460       ??_C@_1O@IMNBEMCI@?$AAs?$AAm?$AAj?$AA?9?$AAS?$AAE?$AA?$AA@ 000000018001a460     libucrt:lcidtoname_downlevel.obj
 0002:00004470       ??_C@_1M@DHHMBNDP@?$AAa?$AAr?$AA?9?$AAM?$AAA?$AA?$AA@ 000000018001a470     libucrt:lcidtoname_downlevel.obj
 0002:00004480       ??_C@_1M@BNBLJCGH@?$AAe?$AAn?$AA?9?$AAI?$AAE?$AA?$AA@ 000000018001a480     libucrt:lcidtoname_downlevel.obj
 0002:00004490       ??_C@_1M@GEPAFMDL@?$AAe?$AAs?$AA?9?$AAP?$AAA?$AA?$AA@ 000000018001a490     libucrt:lcidtoname_downlevel.obj
 0002:000044a0       ??_C@_1M@OJONDMDL@?$AAf?$AAr?$AA?9?$AAM?$AAC?$AA?$AA@ 000000018001a4a0     libucrt:lcidtoname_downlevel.obj
 0002:000044b0       ??_C@_1BG@OBCNFJB@?$AAs?$AAr?$AA?9?$AAB?$AAA?$AA?9?$AAL?$AAa?$AAt?$AAn?$AA?$AA@ 000000018001a4b0     libucrt:lcidtoname_downlevel.obj
 0002:000044c8       ??_C@_1O@KEMEEGPO@?$AAs?$AAm?$AAa?$AA?9?$AAN?$AAO?$AA?$AA@ 000000018001a4c8     libucrt:lcidtoname_downlevel.obj
 0002:000044d8       ??_C@_1M@ELMGFODK@?$AAa?$AAr?$AA?9?$AAT?$AAN?$AA?$AA@ 000000018001a4d8     libucrt:lcidtoname_downlevel.obj
 0002:000044e8       ??_C@_1M@BHDLHFAF@?$AAe?$AAn?$AA?9?$AAZ?$AAA?$AA?$AA@ 000000018001a4e8     libucrt:lcidtoname_downlevel.obj
 0002:000044f8       ??_C@_1M@BMGIGLIF@?$AAe?$AAs?$AA?9?$AAD?$AAO?$AA?$AA@ 000000018001a4f8     libucrt:lcidtoname_downlevel.obj
 0002:00004508       ??_C@_1BG@CMBHIPBE@?$AAs?$AAr?$AA?9?$AAB?$AAA?$AA?9?$AAC?$AAy?$AAr?$AAl?$AA?$AA@ 000000018001a508     libucrt:lcidtoname_downlevel.obj
 0002:00004520       ??_C@_1O@HEDBLHNP@?$AAs?$AAm?$AAa?$AA?9?$AAS?$AAE?$AA?$AA@ 000000018001a520     libucrt:lcidtoname_downlevel.obj
 0002:00004530       ??_C@_1M@DAGCADIM@?$AAa?$AAr?$AA?9?$AAO?$AAM?$AA?$AA@ 000000018001a530     libucrt:lcidtoname_downlevel.obj
 0002:00004540       ??_C@_1M@FODLMICG@?$AAe?$AAn?$AA?9?$AAJ?$AAM?$AA?$AA@ 000000018001a540     libucrt:lcidtoname_downlevel.obj
 0002:00004550       ??_C@_1M@DNMLCIHB@?$AAe?$AAs?$AA?9?$AAV?$AAE?$AA?$AA@ 000000018001a550     libucrt:lcidtoname_downlevel.obj
 0002:00004560       ??_C@_1O@EOKHMKJK@?$AAs?$AAm?$AAs?$AA?9?$AAF?$AAI?$AA?$AA@ 000000018001a560     libucrt:lcidtoname_downlevel.obj
 0002:00004570       ??_C@_1M@CAFJMKOF@?$AAa?$AAr?$AA?9?$AAY?$AAE?$AA?$AA@ 000000018001a570     libucrt:lcidtoname_downlevel.obj
 0002:00004580       ??_C@_1M@CBFHIJLI@?$AAe?$AAn?$AA?9?$AAC?$AAB?$AA?$AA@ 000000018001a580     libucrt:lcidtoname_downlevel.obj
 0002:00004590       ??_C@_1M@BGNFLDN@?$AAe?$AAs?$AA?9?$AAC?$AAO?$AA?$AA@ 000000018001a590     libucrt:lcidtoname_downlevel.obj
 0002:000045a0       ??_C@_1O@JMPHMAMC@?$AAs?$AAm?$AAn?$AA?9?$AAF?$AAI?$AA?$AA@ 000000018001a5a0     libucrt:lcidtoname_downlevel.obj
 0002:000045b0       ??_C@_1M@JLANABKE@?$AAa?$AAr?$AA?9?$AAS?$AAY?$AA?$AA@ 000000018001a5b0     libucrt:lcidtoname_downlevel.obj
 0002:000045c0       ??_C@_1M@HPKGCFGN@?$AAe?$AAn?$AA?9?$AAB?$AAZ?$AA?$AA@ 000000018001a5c0     libucrt:lcidtoname_downlevel.obj
 0002:000045d0       ??_C@_1M@OLJCMLGM@?$AAe?$AAs?$AA?9?$AAP?$AAE?$AA?$AA@ 000000018001a5d0     libucrt:lcidtoname_downlevel.obj
 0002:000045e0       ??_C@_1M@MKKGFKLE@?$AAa?$AAr?$AA?9?$AAJ?$AAO?$AA?$AA@ 000000018001a5e0     libucrt:lcidtoname_downlevel.obj
 0002:000045f0       ??_C@_1M@EKPGLDNI@?$AAe?$AAn?$AA?9?$AAT?$AAT?$AA?$AA@ 000000018001a5f0     libucrt:lcidtoname_downlevel.obj
 0002:00004600       ??_C@_1M@OONGHFHE@?$AAe?$AAs?$AA?9?$AAA?$AAR?$AA?$AA@ 000000018001a600     libucrt:lcidtoname_downlevel.obj
 0002:00004610       ??_C@_1M@OOJFGBHE@?$AAa?$AAr?$AA?9?$AAL?$AAB?$AA?$AA@ 000000018001a610     libucrt:lcidtoname_downlevel.obj
 0002:00004620       ??_C@_1M@GCEJHNEG@?$AAe?$AAn?$AA?9?$AAZ?$AAW?$AA?$AA@ 000000018001a620     libucrt:lcidtoname_downlevel.obj
 0002:00004630       ??_C@_1M@JNOCAHJI@?$AAe?$AAs?$AA?9?$AAE?$AAC?$AA?$AA@ 000000018001a630     libucrt:lcidtoname_downlevel.obj
 0002:00004640       ??_C@_1M@JEFHPGGB@?$AAa?$AAr?$AA?9?$AAK?$AAW?$AA?$AA@ 000000018001a640     libucrt:lcidtoname_downlevel.obj
 0002:00004650       ??_C@_1M@MLKIBJOJ@?$AAe?$AAn?$AA?9?$AAP?$AAH?$AA?$AA@ 000000018001a650     libucrt:lcidtoname_downlevel.obj
 0002:00004660       ??_C@_1M@BDNIPEND@?$AAe?$AAs?$AA?9?$AAC?$AAL?$AA?$AA@ 000000018001a660     libucrt:lcidtoname_downlevel.obj
 0002:00004670       ??_C@_1M@MPNMEKBD@?$AAa?$AAr?$AA?9?$AAA?$AAE?$AA?$AA@ 000000018001a670     libucrt:lcidtoname_downlevel.obj
 0002:00004680       ??_C@_1M@KBJALCPI@?$AAe?$AAs?$AA?9?$AAU?$AAY?$AA?$AA@ 000000018001a680     libucrt:lcidtoname_downlevel.obj
 0002:00004690       ??_C@_1M@LLCCOAGA@?$AAa?$AAr?$AA?9?$AAB?$AAH?$AA?$AA@ 000000018001a690     libucrt:lcidtoname_downlevel.obj
 0002:000046a0       ??_C@_1M@PBFNCDEL@?$AAe?$AAs?$AA?9?$AAP?$AAY?$AA?$AA@ 000000018001a6a0     libucrt:lcidtoname_downlevel.obj
 0002:000046b0       ??_C@_1M@EDGINPNP@?$AAa?$AAr?$AA?9?$AAQ?$AAA?$AA?$AA@ 000000018001a6b0     libucrt:lcidtoname_downlevel.obj
 0002:000046c0       ??_C@_1M@MKDBIIJI@?$AAe?$AAs?$AA?9?$AAB?$AAO?$AA?$AA@ 000000018001a6c0     libucrt:lcidtoname_downlevel.obj
 0002:000046d0       ??_C@_1M@CPKKEBLD@?$AAe?$AAs?$AA?9?$AAS?$AAV?$AA?$AA@ 000000018001a6d0     libucrt:lcidtoname_downlevel.obj
 0002:000046e0       ??_C@_1M@NDBGMMJL@?$AAe?$AAs?$AA?9?$AAH?$AAN?$AA?$AA@ 000000018001a6e0     libucrt:lcidtoname_downlevel.obj
 0002:000046f0       ??_C@_1M@JIJIBHDP@?$AAe?$AAs?$AA?9?$AAN?$AAI?$AA?$AA@ 000000018001a6f0     libucrt:lcidtoname_downlevel.obj
 0002:00004700       ??_C@_1M@CGFMKEEK@?$AAe?$AAs?$AA?9?$AAP?$AAR?$AA?$AA@ 000000018001a700     libucrt:lcidtoname_downlevel.obj
 0002:00004710       ??_C@_1O@ICJHKIIK@?$AAz?$AAh?$AA?9?$AAC?$AAH?$AAT?$AA?$AA@ 000000018001a710     libucrt:lcidtoname_downlevel.obj
 0002:00004720       ??_C@_15CLNEJCE@?$AAs?$AAr?$AA?$AA@ 000000018001a720     libucrt:lcidtoname_downlevel.obj
 0002:00005570       ??_C@_1M@KAHEKEIG@?$AAa?$AAf?$AA?9?$AAz?$AAa?$AA?$AA@ 000000018001b570     libucrt:lcidtoname_downlevel.obj
 0002:00005580       ??_C@_1M@GIECOABL@?$AAa?$AAr?$AA?9?$AAa?$AAe?$AA?$AA@ 000000018001b580     libucrt:lcidtoname_downlevel.obj
 0002:00005590       ??_C@_1M@BMLMEKGI@?$AAa?$AAr?$AA?9?$AAb?$AAh?$AA?$AA@ 000000018001b590     libucrt:lcidtoname_downlevel.obj
 0002:000055a0       ??_C@_1M@DAPFDGGB@?$AAa?$AAr?$AA?9?$AAd?$AAz?$AA?$AA@ 000000018001b5a0     libucrt:lcidtoname_downlevel.obj
 0002:000055b0       ??_C@_1M@FJNKGKIG@?$AAa?$AAr?$AA?9?$AAe?$AAg?$AA?$AA@ 000000018001b5b0     libucrt:lcidtoname_downlevel.obj
 0002:000055c0       ??_C@_1M@FLGKKCLO@?$AAa?$AAr?$AA?9?$AAi?$AAq?$AA?$AA@ 000000018001b5c0     libucrt:lcidtoname_downlevel.obj
 0002:000055d0       ??_C@_1M@GNDIPALM@?$AAa?$AAr?$AA?9?$AAj?$AAo?$AA?$AA@ 000000018001b5d0     libucrt:lcidtoname_downlevel.obj
 0002:000055e0       ??_C@_1M@DDMJFMGJ@?$AAa?$AAr?$AA?9?$AAk?$AAw?$AA?$AA@ 000000018001b5e0     libucrt:lcidtoname_downlevel.obj
 0002:000055f0       ??_C@_1M@EJALMLHM@?$AAa?$AAr?$AA?9?$AAl?$AAb?$AA?$AA@ 000000018001b5f0     libucrt:lcidtoname_downlevel.obj
 0002:00005600       ??_C@_1M@MOBDBLOC@?$AAa?$AAr?$AA?9?$AAl?$AAy?$AA?$AA@ 000000018001b600     libucrt:lcidtoname_downlevel.obj
 0002:00005610       ??_C@_1M@JAOCLHDH@?$AAa?$AAr?$AA?9?$AAm?$AAa?$AA?$AA@ 000000018001b610     libucrt:lcidtoname_downlevel.obj
 0002:00005620       ??_C@_1M@JHPMKJIE@?$AAa?$AAr?$AA?9?$AAo?$AAm?$AA?$AA@ 000000018001b620     libucrt:lcidtoname_downlevel.obj
 0002:00005630       ??_C@_1M@OEPGHFNH@?$AAa?$AAr?$AA?9?$AAq?$AAa?$AA?$AA@ 000000018001b630     libucrt:lcidtoname_downlevel.obj
 0002:00005640       ??_C@_1M@KJDONENM@?$AAa?$AAr?$AA?9?$AAs?$AAa?$AA?$AA@ 000000018001b640     libucrt:lcidtoname_downlevel.obj
 0002:00005650       ??_C@_1M@DMJDKLKM@?$AAa?$AAr?$AA?9?$AAs?$AAy?$AA?$AA@ 000000018001b650     libucrt:lcidtoname_downlevel.obj
 0002:00005660       ??_C@_1M@OMFIPEDC@?$AAa?$AAr?$AA?9?$AAt?$AAn?$AA?$AA@ 000000018001b660     libucrt:lcidtoname_downlevel.obj
 0002:00005670       ??_C@_1M@IHMHGAON@?$AAa?$AAr?$AA?9?$AAy?$AAe?$AA?$AA@ 000000018001b670     libucrt:lcidtoname_downlevel.obj
 0002:00005680       ??_C@_1BG@KDCPGJGB@?$AAa?$AAz?$AA?9?$AAa?$AAz?$AA?9?$AAc?$AAy?$AAr?$AAl?$AA?$AA@ 000000018001b680     libucrt:lcidtoname_downlevel.obj
 0002:00005698       ??_C@_1BG@IBCKDDOE@?$AAa?$AAz?$AA?9?$AAa?$AAz?$AA?9?$AAl?$AAa?$AAt?$AAn?$AA?$AA@ 000000018001b698     libucrt:lcidtoname_downlevel.obj
 0002:000056b0       ??_C@_1M@EGPFDCPD@?$AAb?$AAe?$AA?9?$AAb?$AAy?$AA?$AA@ 000000018001b6b0     libucrt:lcidtoname_downlevel.obj
 0002:000056c0       ??_C@_1M@PCMGMCGC@?$AAb?$AAg?$AA?9?$AAb?$AAg?$AA?$AA@ 000000018001b6c0     libucrt:lcidtoname_downlevel.obj
 0002:000056d0       ??_C@_1M@BJBMFGOB@?$AAb?$AAn?$AA?9?$AAi?$AAn?$AA?$AA@ 000000018001b6d0     libucrt:lcidtoname_downlevel.obj
 0002:000056e0       ??_C@_1BG@EAKMMACD@?$AAb?$AAs?$AA?9?$AAb?$AAa?$AA?9?$AAl?$AAa?$AAt?$AAn?$AA?$AA@ 000000018001b6e0     libucrt:lcidtoname_downlevel.obj
 0002:000056f8       ??_C@_1M@KGADAODK@?$AAc?$AAa?$AA?9?$AAe?$AAs?$AA?$AA@ 000000018001b6f8     libucrt:lcidtoname_downlevel.obj
 0002:00005708       ??_C@_1M@COAJPDHI@?$AAc?$AAs?$AA?9?$AAc?$AAz?$AA?$AA@ 000000018001b708     libucrt:lcidtoname_downlevel.obj
 0002:00005718       ??_C@_1M@DHBHFONH@?$AAc?$AAy?$AA?9?$AAg?$AAb?$AA?$AA@ 000000018001b718     libucrt:lcidtoname_downlevel.obj
 0002:00005728       ??_C@_1M@IMGKELGA@?$AAd?$AAa?$AA?9?$AAd?$AAk?$AA?$AA@ 000000018001b728     libucrt:lcidtoname_downlevel.obj
 0002:00005738       ??_C@_1M@NNDGDNGA@?$AAd?$AAe?$AA?9?$AAa?$AAt?$AA?$AA@ 000000018001b738     libucrt:lcidtoname_downlevel.obj
 0002:00005748       ??_C@_1M@IKDBHEEM@?$AAd?$AAe?$AA?9?$AAc?$AAh?$AA?$AA@ 000000018001b748     libucrt:lcidtoname_downlevel.obj
 0002:00005758       ??_C@_1M@GFFOJMCJ@?$AAd?$AAe?$AA?9?$AAd?$AAe?$AA?$AA@ 000000018001b758     libucrt:lcidtoname_downlevel.obj
 0002:00005768       ??_C@_1M@MDNLKBPM@?$AAd?$AAe?$AA?9?$AAl?$AAi?$AA?$AA@ 000000018001b768     libucrt:lcidtoname_downlevel.obj
 0002:00005778       ??_C@_1M@NJBEEJNL@?$AAd?$AAe?$AA?9?$AAl?$AAu?$AA?$AA@ 000000018001b778     libucrt:lcidtoname_downlevel.obj
 0002:00005788       ??_C@_1O@GNNELBAP@?$AAd?$AAi?$AAv?$AA?9?$AAm?$AAv?$AA?$AA@ 000000018001b788     libucrt:lcidtoname_downlevel.obj
 0002:00005798       ??_C@_1M@EJLEOGAE@?$AAe?$AAl?$AA?9?$AAg?$AAr?$AA?$AA@ 000000018001b798     libucrt:lcidtoname_downlevel.obj
 0002:000057a8       ??_C@_1M@GMPONJN@?$AAe?$AAn?$AA?9?$AAa?$AAu?$AA?$AA@ 000000018001b7a8     libucrt:lcidtoname_downlevel.obj
 0002:000057b8       ??_C@_1M@NIDIIPGF@?$AAe?$AAn?$AA?9?$AAb?$AAz?$AA?$AA@ 000000018001b7b8     libucrt:lcidtoname_downlevel.obj
 0002:000057c8       ??_C@_1M@JEHMIMFO@?$AAe?$AAn?$AA?9?$AAc?$AAa?$AA?$AA@ 000000018001b7c8     libucrt:lcidtoname_downlevel.obj
 0002:000057d8       ??_C@_1M@IGMJCDLA@?$AAe?$AAn?$AA?9?$AAc?$AAb?$AA?$AA@ 000000018001b7d8     libucrt:lcidtoname_downlevel.obj
 0002:000057e8       ??_C@_1M@BNFIGBKG@?$AAe?$AAn?$AA?9?$AAg?$AAb?$AA?$AA@ 000000018001b7e8     libucrt:lcidtoname_downlevel.obj
 0002:000057f8       ??_C@_1M@LKIFDIGP@?$AAe?$AAn?$AA?9?$AAi?$AAe?$AA?$AA@ 000000018001b7f8     libucrt:lcidtoname_downlevel.obj
 0002:00005808       ??_C@_1M@PJKFGCCO@?$AAe?$AAn?$AA?9?$AAj?$AAm?$AA?$AA@ 000000018001b808     libucrt:lcidtoname_downlevel.obj
 0002:00005818       ??_C@_1M@KPPKEPBO@?$AAe?$AAn?$AA?9?$AAn?$AAz?$AA?$AA@ 000000018001b818     libucrt:lcidtoname_downlevel.obj
 0002:00005828       ??_C@_1M@GMDGLDOB@?$AAe?$AAn?$AA?9?$AAp?$AAh?$AA?$AA@ 000000018001b828     libucrt:lcidtoname_downlevel.obj
 0002:00005838       ??_C@_1M@ONGIBJNA@?$AAe?$AAn?$AA?9?$AAt?$AAt?$AA?$AA@ 000000018001b838     libucrt:lcidtoname_downlevel.obj
 0002:00005848       ??_C@_1M@LLODPCMM@?$AAe?$AAn?$AA?9?$AAu?$AAs?$AA?$AA@ 000000018001b848     libucrt:lcidtoname_downlevel.obj
 0002:00005858       ??_C@_1M@LAKFNPAN@?$AAe?$AAn?$AA?9?$AAz?$AAa?$AA?$AA@ 000000018001b858     libucrt:lcidtoname_downlevel.obj
 0002:00005868       ??_C@_1M@MFNHNHEO@?$AAe?$AAn?$AA?9?$AAz?$AAw?$AA?$AA@ 000000018001b868     libucrt:lcidtoname_downlevel.obj
 0002:00005878       ??_C@_1M@EJEINPHM@?$AAe?$AAs?$AA?9?$AAa?$AAr?$AA?$AA@ 000000018001b878     libucrt:lcidtoname_downlevel.obj
 0002:00005888       ??_C@_1M@GNKPCCJA@?$AAe?$AAs?$AA?9?$AAb?$AAo?$AA?$AA@ 000000018001b888     libucrt:lcidtoname_downlevel.obj
 0002:00005898       ??_C@_1M@LEEGFONL@?$AAe?$AAs?$AA?9?$AAc?$AAl?$AA?$AA@ 000000018001b898     libucrt:lcidtoname_downlevel.obj
 0002:000058a8       ??_C@_1M@KGPDPBDF@?$AAe?$AAs?$AA?9?$AAc?$AAo?$AA?$AA@ 000000018001b8a8     libucrt:lcidtoname_downlevel.obj
 0002:000058b8       ??_C@_1M@EIAHOHH@?$AAe?$AAs?$AA?9?$AAc?$AAr?$AA?$AA@ 000000018001b8b8     libucrt:lcidtoname_downlevel.obj
 0002:000058c8       ??_C@_1M@LLPGMBIN@?$AAe?$AAs?$AA?9?$AAd?$AAo?$AA?$AA@ 000000018001b8c8     libucrt:lcidtoname_downlevel.obj
 0002:000058d8       ??_C@_1M@DKHMKNJA@?$AAe?$AAs?$AA?9?$AAe?$AAc?$AA?$AA@ 000000018001b8d8     libucrt:lcidtoname_downlevel.obj
 0002:000058e8       ??_C@_1M@GKGFPKAP@?$AAe?$AAs?$AA?9?$AAe?$AAs?$AA?$AA@ 000000018001b8e8     libucrt:lcidtoname_downlevel.obj
 0002:000058f8       ??_C@_1M@LKHKGDLN@?$AAe?$AAs?$AA?9?$AAg?$AAt?$AA?$AA@ 000000018001b8f8     libucrt:lcidtoname_downlevel.obj
 0002:00005908       ??_C@_1M@HEIIGGJD@?$AAe?$AAs?$AA?9?$AAh?$AAn?$AA?$AA@ 000000018001b908     libucrt:lcidtoname_downlevel.obj
 0002:00005918       ??_C@_1M@FBDHPPGD@?$AAe?$AAs?$AA?9?$AAm?$AAx?$AA?$AA@ 000000018001b918     libucrt:lcidtoname_downlevel.obj
 0002:00005928       ??_C@_1M@DPAGLNDH@?$AAe?$AAs?$AA?9?$AAn?$AAi?$AA?$AA@ 000000018001b928     libucrt:lcidtoname_downlevel.obj
 0002:00005938       ??_C@_1M@MDGOPGDD@?$AAe?$AAs?$AA?9?$AAp?$AAa?$AA?$AA@ 000000018001b938     libucrt:lcidtoname_downlevel.obj
 0002:00005948       ??_C@_1M@EMAMGBGE@?$AAe?$AAs?$AA?9?$AAp?$AAe?$AA?$AA@ 000000018001b948     libucrt:lcidtoname_downlevel.obj
 0002:00005958       ??_C@_1M@IBMCAOEC@?$AAe?$AAs?$AA?9?$AAp?$AAr?$AA?$AA@ 000000018001b958     libucrt:lcidtoname_downlevel.obj
 0002:00005968       ??_C@_1M@FGMDIJED@?$AAe?$AAs?$AA?9?$AAp?$AAy?$AA?$AA@ 000000018001b968     libucrt:lcidtoname_downlevel.obj
 0002:00005978       ??_C@_1M@IIDEOLLL@?$AAe?$AAs?$AA?9?$AAs?$AAv?$AA?$AA@ 000000018001b978     libucrt:lcidtoname_downlevel.obj
 0002:00005988       ??_C@_1M@GAOBIPA@?$AAe?$AAs?$AA?9?$AAu?$AAy?$AA?$AA@ 000000018001b988     libucrt:lcidtoname_downlevel.obj
 0002:00005998       ??_C@_1M@JKFFICHJ@?$AAe?$AAs?$AA?9?$AAv?$AAe?$AA?$AA@ 000000018001b998     libucrt:lcidtoname_downlevel.obj
 0002:000059a8       ??_C@_1M@PNMLOJDF@?$AAe?$AAt?$AA?9?$AAe?$AAe?$AA?$AA@ 000000018001b9a8     libucrt:lcidtoname_downlevel.obj
 0002:000059b8       ??_C@_1M@GHHLIKEI@?$AAe?$AAu?$AA?9?$AAe?$AAs?$AA?$AA@ 000000018001b9b8     libucrt:lcidtoname_downlevel.obj
 0002:000059c8       ??_C@_1M@PBNONODE@?$AAf?$AAa?$AA?9?$AAi?$AAr?$AA?$AA@ 000000018001b9c8     libucrt:lcidtoname_downlevel.obj
 0002:000059d8       ??_C@_1M@JEEHPMIL@?$AAf?$AAi?$AA?9?$AAf?$AAi?$AA?$AA@ 000000018001b9d8     libucrt:lcidtoname_downlevel.obj
 0002:000059e8       ??_C@_1M@LMDCNDBA@?$AAf?$AAo?$AA?9?$AAf?$AAo?$AA?$AA@ 000000018001b9e8     libucrt:lcidtoname_downlevel.obj
 0002:000059f8       ??_C@_1M@JKEOHLDK@?$AAf?$AAr?$AA?9?$AAb?$AAe?$AA?$AA@ 000000018001b9f8     libucrt:lcidtoname_downlevel.obj
 0002:00005a08       ??_C@_1M@NOHADPMI@?$AAf?$AAr?$AA?9?$AAc?$AAa?$AA?$AA@ 000000018001ba08     libucrt:lcidtoname_downlevel.obj
 0002:00005a18       ??_C@_1M@KDHIHAEC@?$AAf?$AAr?$AA?9?$AAc?$AAh?$AA?$AA@ 000000018001ba18     libucrt:lcidtoname_downlevel.obj
 0002:00005a28       ??_C@_1M@MMBBFGAK@?$AAf?$AAr?$AA?9?$AAf?$AAr?$AA?$AA@ 000000018001ba28     libucrt:lcidtoname_downlevel.obj
 0002:00005a38       ??_C@_1M@PAFNENNF@?$AAf?$AAr?$AA?9?$AAl?$AAu?$AA?$AA@ 000000018001ba38     libucrt:lcidtoname_downlevel.obj
 0002:00005a48       ??_C@_1M@EOHDJGDD@?$AAf?$AAr?$AA?9?$AAm?$AAc?$AA?$AA@ 000000018001ba48     libucrt:lcidtoname_downlevel.obj
 0002:00005a58       ??_C@_1M@FAPLLOPF@?$AAg?$AAl?$AA?9?$AAe?$AAs?$AA?$AA@ 000000018001ba58     libucrt:lcidtoname_downlevel.obj
 0002:00005a68       ??_C@_1M@FOPBFLOO@?$AAg?$AAu?$AA?9?$AAi?$AAn?$AA?$AA@ 000000018001ba68     libucrt:lcidtoname_downlevel.obj
 0002:00005a78       ??_C@_1M@KBMCINPM@?$AAh?$AAe?$AA?9?$AAi?$AAl?$AA?$AA@ 000000018001ba78     libucrt:lcidtoname_downlevel.obj
 0002:00005a88       ??_C@_1M@BBPHKFPJ@?$AAh?$AAi?$AA?9?$AAi?$AAn?$AA?$AA@ 000000018001ba88     libucrt:lcidtoname_downlevel.obj
 0002:00005a98       ??_C@_1M@PMBNDPHD@?$AAh?$AAr?$AA?9?$AAb?$AAa?$AA?$AA@ 000000018001ba98     libucrt:lcidtoname_downlevel.obj
 0002:00005aa8       ??_C@_1M@BPCKOEGE@?$AAh?$AAr?$AA?9?$AAh?$AAr?$AA?$AA@ 000000018001baa8     libucrt:lcidtoname_downlevel.obj
 0002:00005ab8       ??_C@_1M@GACBMHKE@?$AAh?$AAu?$AA?9?$AAh?$AAu?$AA?$AA@ 000000018001bab8     libucrt:lcidtoname_downlevel.obj
 0002:00005ac8       ??_C@_1M@MILPAJJC@?$AAh?$AAy?$AA?9?$AAa?$AAm?$AA?$AA@ 000000018001bac8     libucrt:lcidtoname_downlevel.obj
 0002:00005ad8       ??_C@_1M@BABBICEC@?$AAi?$AAd?$AA?9?$AAi?$AAd?$AA?$AA@ 000000018001bad8     libucrt:lcidtoname_downlevel.obj
 0002:00005ae8       ??_C@_1M@BIKNHHPF@?$AAi?$AAs?$AA?9?$AAi?$AAs?$AA?$AA@ 000000018001bae8     libucrt:lcidtoname_downlevel.obj
 0002:00005af8       ??_C@_1M@NMPCJPHE@?$AAi?$AAt?$AA?9?$AAc?$AAh?$AA?$AA@ 000000018001baf8     libucrt:lcidtoname_downlevel.obj
 0002:00005b08       ??_C@_1M@GHKGFEDF@?$AAi?$AAt?$AA?9?$AAi?$AAt?$AA?$AA@ 000000018001bb08     libucrt:lcidtoname_downlevel.obj
 0002:00005b18       ??_C@_1M@NIEJCJJA@?$AAj?$AAa?$AA?9?$AAj?$AAp?$AA?$AA@ 000000018001bb18     libucrt:lcidtoname_downlevel.obj
 0002:00005b28       ??_C@_1M@JILFNBIM@?$AAk?$AAa?$AA?9?$AAg?$AAe?$AA?$AA@ 000000018001bb28     libucrt:lcidtoname_downlevel.obj
 0002:00005b38       ??_C@_1M@PACPMGPH@?$AAk?$AAk?$AA?9?$AAk?$AAz?$AA?$AA@ 000000018001bb38     libucrt:lcidtoname_downlevel.obj
 0002:00005b48       ??_C@_1M@IELFGMHA@?$AAk?$AAn?$AA?9?$AAi?$AAn?$AA?$AA@ 000000018001bb48     libucrt:lcidtoname_downlevel.obj
 0002:00005b58       ??_C@_1O@IBBJHCH@?$AAk?$AAo?$AAk?$AA?9?$AAi?$AAn?$AA?$AA@ 000000018001bb58     libucrt:lcidtoname_downlevel.obj
 0002:00005b68       ??_C@_1M@DMHAEOGC@?$AAk?$AAo?$AA?9?$AAk?$AAr?$AA?$AA@ 000000018001bb68     libucrt:lcidtoname_downlevel.obj
 0002:00005b78       ??_C@_1M@HBAHBIGA@?$AAk?$AAy?$AA?9?$AAk?$AAg?$AA?$AA@ 000000018001bb78     libucrt:lcidtoname_downlevel.obj
 0002:00005b88       ??_C@_1M@KPMILCJG@?$AAl?$AAt?$AA?9?$AAl?$AAt?$AA?$AA@ 000000018001bb88     libucrt:lcidtoname_downlevel.obj
 0002:00005b98       ??_C@_1M@BDEKKCA@?$AAl?$AAv?$AA?9?$AAl?$AAv?$AA?$AA@ 000000018001bb98     libucrt:lcidtoname_downlevel.obj
 0002:00005ba8       ??_C@_1M@ELCKCCJJ@?$AAm?$AAi?$AA?9?$AAn?$AAz?$AA?$AA@ 000000018001bba8     libucrt:lcidtoname_downlevel.obj
 0002:00005bb8       ??_C@_1M@CBOOLAPA@?$AAm?$AAk?$AA?9?$AAm?$AAk?$AA?$AA@ 000000018001bbb8     libucrt:lcidtoname_downlevel.obj
 0002:00005bc8       ??_C@_1M@GPHNBJKN@?$AAm?$AAl?$AA?9?$AAi?$AAn?$AA?$AA@ 000000018001bbc8     libucrt:lcidtoname_downlevel.obj
 0002:00005bd8       ??_C@_1M@PABJILIG@?$AAm?$AAn?$AA?9?$AAm?$AAn?$AA?$AA@ 000000018001bbd8     libucrt:lcidtoname_downlevel.obj
 0002:00005be8       ??_C@_1M@FGBKKIPG@?$AAm?$AAr?$AA?9?$AAi?$AAn?$AA?$AA@ 000000018001bbe8     libucrt:lcidtoname_downlevel.obj
 0002:00005bf8       ??_C@_1M@NDBPDDAL@?$AAm?$AAs?$AA?9?$AAb?$AAn?$AA?$AA@ 000000018001bbf8     libucrt:lcidtoname_downlevel.obj
 0002:00005c08       ??_C@_1M@OPIHOOPI@?$AAm?$AAs?$AA?9?$AAm?$AAy?$AA?$AA@ 000000018001bc08     libucrt:lcidtoname_downlevel.obj
 0002:00005c18       ??_C@_1M@PPDBCNFM@?$AAm?$AAt?$AA?9?$AAm?$AAt?$AA?$AA@ 000000018001bc18     libucrt:lcidtoname_downlevel.obj
 0002:00005c28       ??_C@_1M@KDJDKMDD@?$AAn?$AAb?$AA?9?$AAn?$AAo?$AA?$AA@ 000000018001bc28     libucrt:lcidtoname_downlevel.obj
 0002:00005c38       ??_C@_1M@KFCFLMJP@?$AAn?$AAl?$AA?9?$AAb?$AAe?$AA?$AA@ 000000018001bc38     libucrt:lcidtoname_downlevel.obj
 0002:00005c48       ??_C@_1M@KPOPDDGO@?$AAn?$AAl?$AA?9?$AAn?$AAl?$AA?$AA@ 000000018001bc48     libucrt:lcidtoname_downlevel.obj
 0002:00005c58       ??_C@_1M@LJKPEMLN@?$AAn?$AAn?$AA?9?$AAn?$AAo?$AA?$AA@ 000000018001bc58     libucrt:lcidtoname_downlevel.obj
 0002:00005c68       ??_C@_1M@BDGHHBFL@?$AAn?$AAs?$AA?9?$AAz?$AAa?$AA?$AA@ 000000018001bc68     libucrt:lcidtoname_downlevel.obj
 0002:00005c78       ??_C@_1M@IDEHOAP@?$AAp?$AAa?$AA?9?$AAi?$AAn?$AA?$AA@ 000000018001bc78     libucrt:lcidtoname_downlevel.obj
 0002:00005c88       ??_C@_1M@HDBKGOGH@?$AAp?$AAl?$AA?9?$AAp?$AAl?$AA?$AA@ 000000018001bc88     libucrt:lcidtoname_downlevel.obj
 0002:00005c98       ??_C@_1M@LJLLCMEH@?$AAp?$AAt?$AA?9?$AAb?$AAr?$AA?$AA@ 000000018001bc98     libucrt:lcidtoname_downlevel.obj
 0002:00005ca8       ??_C@_1M@NCMONAAL@?$AAp?$AAt?$AA?9?$AAp?$AAt?$AA?$AA@ 000000018001bca8     libucrt:lcidtoname_downlevel.obj
 0002:00005cb8       ??_C@_1O@EAKMAJDN@?$AAq?$AAu?$AAz?$AA?9?$AAb?$AAo?$AA?$AA@ 000000018001bcb8     libucrt:lcidtoname_downlevel.obj
 0002:00005cc8       ??_C@_1O@BHHPIGDN@?$AAq?$AAu?$AAz?$AA?9?$AAe?$AAc?$AA?$AA@ 000000018001bcc8     libucrt:lcidtoname_downlevel.obj
 0002:00005cd8       ??_C@_1O@GBAPEKMJ@?$AAq?$AAu?$AAz?$AA?9?$AAp?$AAe?$AA?$AA@ 000000018001bcd8     libucrt:lcidtoname_downlevel.obj
 0002:00005ce8       ??_C@_1M@CLGLEFBO@?$AAr?$AAo?$AA?9?$AAr?$AAo?$AA?$AA@ 000000018001bce8     libucrt:lcidtoname_downlevel.obj
 0002:00005cf8       ??_C@_1M@CEEDODME@?$AAr?$AAu?$AA?9?$AAr?$AAu?$AA?$AA@ 000000018001bcf8     libucrt:lcidtoname_downlevel.obj
 0002:00005d08       ??_C@_1M@HPKKKMPP@?$AAs?$AAa?$AA?9?$AAi?$AAn?$AA?$AA@ 000000018001bd08     libucrt:lcidtoname_downlevel.obj
 0002:00005d18       ??_C@_1M@BKMAIGOJ@?$AAs?$AAe?$AA?9?$AAf?$AAi?$AA?$AA@ 000000018001bd18     libucrt:lcidtoname_downlevel.obj
 0002:00005d28       ??_C@_1M@NDPIFLFI@?$AAs?$AAe?$AA?9?$AAn?$AAo?$AA?$AA@ 000000018001bd28     libucrt:lcidtoname_downlevel.obj
 0002:00005d38       ??_C@_1M@DANKKHJ@?$AAs?$AAe?$AA?9?$AAs?$AAe?$AA?$AA@ 000000018001bd38     libucrt:lcidtoname_downlevel.obj
 0002:00005d48       ??_C@_1M@PNBLONPJ@?$AAs?$AAk?$AA?9?$AAs?$AAk?$AA?$AA@ 000000018001bd48     libucrt:lcidtoname_downlevel.obj
 0002:00005d58       ??_C@_1M@LFMODOAL@?$AAs?$AAl?$AA?9?$AAs?$AAi?$AA?$AA@ 000000018001bd58     libucrt:lcidtoname_downlevel.obj
 0002:00005d68       ??_C@_1O@DFKOMPG@?$AAs?$AAm?$AAa?$AA?9?$AAn?$AAo?$AA?$AA@ 000000018001bd68     libucrt:lcidtoname_downlevel.obj
 0002:00005d78       ??_C@_1O@NDKPBNNH@?$AAs?$AAm?$AAa?$AA?9?$AAs?$AAe?$AA?$AA@ 000000018001bd78     libucrt:lcidtoname_downlevel.obj
 0002:00005d88       ??_C@_1O@PLLKBHAB@?$AAs?$AAm?$AAj?$AA?9?$AAn?$AAo?$AA?$AA@ 000000018001bd88     libucrt:lcidtoname_downlevel.obj
 0002:00005d98       ??_C@_1O@CLEPOGCA@?$AAs?$AAm?$AAj?$AA?9?$AAs?$AAe?$AA?$AA@ 000000018001bd98     libucrt:lcidtoname_downlevel.obj
 0002:00005da8       ??_C@_1O@DLGJGKMK@?$AAs?$AAm?$AAn?$AA?9?$AAf?$AAi?$AA?$AA@ 000000018001bda8     libucrt:lcidtoname_downlevel.obj
 0002:00005db8       ??_C@_1O@OJDJGAJC@?$AAs?$AAm?$AAs?$AA?9?$AAf?$AAi?$AA?$AA@ 000000018001bdb8     libucrt:lcidtoname_downlevel.obj
 0002:00005dc8       ??_C@_1M@BOFOGHPB@?$AAs?$AAq?$AA?9?$AAa?$AAl?$AA?$AA@ 000000018001bdc8     libucrt:lcidtoname_downlevel.obj
 0002:00005dd8       ??_C@_1BG@LJBBIPGB@?$AAs?$AAr?$AA?9?$AAb?$AAa?$AA?9?$AAc?$AAy?$AAr?$AAl?$AA?$AA@ 000000018001bdd8     libucrt:lcidtoname_downlevel.obj
 0002:00005df0       ??_C@_1BG@JLBENFOE@?$AAs?$AAr?$AA?9?$AAb?$AAa?$AA?9?$AAl?$AAa?$AAt?$AAn?$AA?$AA@ 000000018001bdf0     libucrt:lcidtoname_downlevel.obj
 0002:00005e08       ??_C@_1BG@KODPNHE@?$AAs?$AAr?$AA?9?$AAs?$AAp?$AA?9?$AAc?$AAy?$AAr?$AAl?$AA?$AA@ 000000018001be08     libucrt:lcidtoname_downlevel.obj
 0002:00005e20       ??_C@_1BG@CIOGKHPB@?$AAs?$AAr?$AA?9?$AAs?$AAp?$AA?9?$AAl?$AAa?$AAt?$AAn?$AA?$AA@ 000000018001be20     libucrt:lcidtoname_downlevel.obj
 0002:00005e38       ??_C@_1M@NGFJLMAC@?$AAs?$AAv?$AA?9?$AAf?$AAi?$AA?$AA@ 000000018001be38     libucrt:lcidtoname_downlevel.obj
 0002:00005e48       ??_C@_1M@MPJEJAJC@?$AAs?$AAv?$AA?9?$AAs?$AAe?$AA?$AA@ 000000018001be48     libucrt:lcidtoname_downlevel.obj
 0002:00005e58       ??_C@_1M@MPNDHLFK@?$AAs?$AAw?$AA?9?$AAk?$AAe?$AA?$AA@ 000000018001be58     libucrt:lcidtoname_downlevel.obj
 0002:00005e68       ??_C@_1O@KOHBJJI@?$AAs?$AAy?$AAr?$AA?9?$AAs?$AAy?$AA?$AA@ 000000018001be68     libucrt:lcidtoname_downlevel.obj
 0002:00005e78       ??_C@_1M@LDCEFHA@?$AAt?$AAa?$AA?9?$AAi?$AAn?$AA?$AA@ 000000018001be78     libucrt:lcidtoname_downlevel.obj
 0002:00005e88       ??_C@_1M@CNJOFAK@?$AAt?$AAe?$AA?9?$AAi?$AAn?$AA?$AA@ 000000018001be88     libucrt:lcidtoname_downlevel.obj
 0002:00005e98       ??_C@_1M@GNAECACD@?$AAt?$AAh?$AA?9?$AAt?$AAh?$AA?$AA@ 000000018001be98     libucrt:lcidtoname_downlevel.obj
 0002:00005ea8       ??_C@_1M@CHBIHOJO@?$AAt?$AAn?$AA?9?$AAz?$AAa?$AA?$AA@ 000000018001bea8     libucrt:lcidtoname_downlevel.obj
 0002:00005eb8       ??_C@_1M@GCCMIGPJ@?$AAt?$AAr?$AA?9?$AAt?$AAr?$AA?$AA@ 000000018001beb8     libucrt:lcidtoname_downlevel.obj
 0002:00005ec8       ??_C@_1M@CELMCNBK@?$AAt?$AAt?$AA?9?$AAr?$AAu?$AA?$AA@ 000000018001bec8     libucrt:lcidtoname_downlevel.obj
 0002:00005ed8       ??_C@_1M@KLMCELGA@?$AAu?$AAk?$AA?9?$AAu?$AAa?$AA?$AA@ 000000018001bed8     libucrt:lcidtoname_downlevel.obj
 0002:00005ee8       ??_C@_1M@EPAJJAJF@?$AAu?$AAr?$AA?9?$AAp?$AAk?$AA?$AA@ 000000018001bee8     libucrt:lcidtoname_downlevel.obj
 0002:00005ef8       ??_C@_1BG@GEGPMCDJ@?$AAu?$AAz?$AA?9?$AAu?$AAz?$AA?9?$AAc?$AAy?$AAr?$AAl?$AA?$AA@ 000000018001bef8     libucrt:lcidtoname_downlevel.obj
 0002:00005f10       ??_C@_1BG@EGGKJILM@?$AAu?$AAz?$AA?9?$AAu?$AAz?$AA?9?$AAl?$AAa?$AAt?$AAn?$AA?$AA@ 000000018001bf10     libucrt:lcidtoname_downlevel.obj
 0002:00005f28       ??_C@_1M@GFOCLFF@?$AAv?$AAi?$AA?9?$AAv?$AAn?$AA?$AA@ 000000018001bf28     libucrt:lcidtoname_downlevel.obj
 0002:00005f38       ??_C@_1M@CPAMEDFI@?$AAx?$AAh?$AA?9?$AAz?$AAa?$AA?$AA@ 000000018001bf38     libucrt:lcidtoname_downlevel.obj
 0002:00005f48       ??_C@_1O@EBKIFIGN@?$AAz?$AAh?$AA?9?$AAc?$AAh?$AAs?$AA?$AA@ 000000018001bf48     libucrt:lcidtoname_downlevel.obj
 0002:00005f58       ??_C@_1O@NMHPGANE@?$AAz?$AAh?$AA?9?$AAc?$AAh?$AAt?$AA?$AA@ 000000018001bf58     libucrt:lcidtoname_downlevel.obj
 0002:00005f68       ??_C@_1M@LPINJOMC@?$AAz?$AAh?$AA?9?$AAc?$AAn?$AA?$AA@ 000000018001bf68     libucrt:lcidtoname_downlevel.obj
 0002:00005f78       ??_C@_1M@OCJEJODD@?$AAz?$AAh?$AA?9?$AAh?$AAk?$AA?$AA@ 000000018001bf78     libucrt:lcidtoname_downlevel.obj
 0002:00005f88       ??_C@_1M@DNDLJINH@?$AAz?$AAh?$AA?9?$AAm?$AAo?$AA?$AA@ 000000018001bf88     libucrt:lcidtoname_downlevel.obj
 0002:00005f98       ??_C@_1M@MBFDNDND@?$AAz?$AAh?$AA?9?$AAs?$AAg?$AA?$AA@ 000000018001bf98     libucrt:lcidtoname_downlevel.obj
 0002:00005fa8       ??_C@_1M@IMEPLEPE@?$AAz?$AAh?$AA?9?$AAt?$AAw?$AA?$AA@ 000000018001bfa8     libucrt:lcidtoname_downlevel.obj
 0002:00005fb8       ??_C@_1M@BBGHNHJP@?$AAz?$AAu?$AA?9?$AAz?$AAa?$AA?$AA@ 000000018001bfb8     libucrt:lcidtoname_downlevel.obj
 0002:00005fc4       ??_C@_00CNPNBAHC@?$AA@     000000018001bfc4     libucrt:mbrtowc.obj
 0002:00005fd0       ?large_power_data@?1??multiply_by_power_of_ten@__crt_strtox@@YA_NAEAUbig_integer@2@I@Z@4QBIB 000000018001bfd0     libucrt:cfout.obj
 0002:000068e0       ?large_power_indices@?1??multiply_by_power_of_ten@__crt_strtox@@YA_NAEAUbig_integer@2@I@Z@4QBUunpack_index@?1??12@YA_N0I@Z@B 000000018001c8e0     libucrt:cfout.obj
 0002:00006978       ?small_powers_of_ten@?1??multiply_by_power_of_ten@__crt_strtox@@YA_NAEAUbig_integer@2@I@Z@4QBIB 000000018001c978     libucrt:cfout.obj
 0002:0000699c       ??_C@_01GBGANLPD@0?$AA@    000000018001c99c     libucrt:cfout.obj
 0002:000069a0       ??_C@_05DNEBIAHO@1?$CDINF?$AA@ 000000018001c9a0     libucrt:cfout.obj
 0002:000069a8       ??_C@_06IMKFLFPG@1?$CDQNAN?$AA@ 000000018001c9a8     libucrt:cfout.obj
 0002:000069b0       ??_C@_06PGGFOGJG@1?$CDSNAN?$AA@ 000000018001c9b0     libucrt:cfout.obj
 0002:000069b8       ??_C@_05PHHOCPM@1?$CDIND?$AA@ 000000018001c9b8     libucrt:cfout.obj
 0002:000069c0       __real@3ff0000000000000    000000018001c9c0     libucrt:ceil.obj
 0002:00006c20       ??_C@_1BA@BALFACEM@?$AAC?$AAO?$AAN?$AAO?$AAU?$AAT?$AA$?$AA?$AA@ 000000018001cc20     libucrt:initcon.obj
 0002:00006c30       __log10_256_lead           000000018001cc30     libucrt:log10_256_lead_tail_table.obj
 0002:00007440       __log10_256_tail           000000018001d440     libucrt:log10_256_lead_tail_table.obj
 0002:00007c50       __log_F_inv_qword          000000018001dc50     libucrt:log_f_inv_qword_table.obj
 0002:00008460       ??_C@_05HGHHAHAP@log10?$AA@ 000000018001e460     libucrt:log_special.obj
 0002:00008480       ??_C@_1BK@DBDEIDLH@?$AAK?$AAE?$AAR?$AAN?$AAE?$AAL?$AA3?$AA2?$AA?4?$AAD?$AAL?$AAL@ 000000018001e480     DelayImp:delayhlp.obj
 0002:000084a0       ??_C@_0BI@OMNLIJDB@AcquireSRWLockExclusive@ 000000018001e4a0     DelayImp:delayhlp.obj
 0002:000084b8       ??_C@_0BI@HMIEPCNJ@ReleaseSRWLockExclusive@ 000000018001e4b8     DelayImp:delayhlp.obj
 0002:000084d0       __pfnDliFailureHook2       000000018001e4d0     DelayImp:delayhk1.obj
 0002:000084e0       _load_config_used          000000018001e4e0     LIBCMT:loadcfg.obj
 0002:000085e0       ??_C@_1KO@BHGNLEJJ@?$AAc?$AA?3?$AA?2?$AAu?$AAs?$AAe?$AAr?$AAs?$AA?2?$AAk?$AAa?$AAu?$AAs?$AAt?$AAu@ 000000018001e5e0     bufferutil.obj
 0002:00008690       ??_C@_1DG@OKCGPKIB@?$AAp?$AAe?$AAr?$AAs?$AAi?$AAs?$AAt?$AAe?$AAn?$AAt?$AA?$CI?$AA?$CJ?$AA?4?$AAI?$AAs@ 000000018001e690     bufferutil.obj
 0002:000086c8       ??_C@_1CO@EGNPJLKI@?$AAp?$AAe?$AAr?$AAs?$AAi?$AAs?$AAt?$AAe?$AAn?$AAt?$AA?$CI?$AA?$CJ?$AA?4?$AAI?$AAs@ 000000018001e6c8     bufferutil.obj
 0002:00008700       ??_C@_1EC@NOLNIHNJ@?$AAh?$AAa?$AAn?$AAd?$AAl?$AAe?$AA?9?$AA?$DO?$AAI?$AAn?$AAt?$AAe?$AAr?$AAn?$AAa@ 000000018001e700     bufferutil.obj
 0002:00008748       ??_C@_1DA@FBGAEOIO@?$AA?$CB?$AAp?$AAe?$AAr?$AAs?$AAi?$AAs?$AAt?$AAe?$AAn?$AAt?$AA?$CI?$AA?$CJ?$AA?4?$AAI@ 000000018001e748     bufferutil.obj
 0002:00008778       ??_C@_1CO@JCKLEFMA@?$AA?$CB?$AAp?$AAe?$AAr?$AAs?$AAi?$AAs?$AAt?$AAe?$AAn?$AAt?$AA?$CI?$AA?$CJ?$AA?4?$AAI@ 000000018001e778     bufferutil.obj
 0002:000087a8       ??_C@_1BE@GMLLOIPJ@?$AAr?$AAe?$AAf?$AAs?$AA_?$AA?5?$AA?$DO?$AA?5?$AA0@ 000000018001e7a8     bufferutil.obj
 0002:000087c0       ??_C@_1CC@GBFLAAPF@?$AAw?$AAr?$AAa?$AAp?$AA?9?$AA?$DO?$AAr?$AAe?$AAf?$AAs?$AA_?$AA?5?$AA?$DN?$AA?$DN?$AA?5@ 000000018001e7c0     bufferutil.obj
 0002:000087e4       ??_C@_06NMLLPGNI@unmask@   000000018001e7e4     bufferutil.obj
 0002:000087ec       ??_C@_04LFLEPBN@mask@      000000018001e7ec     bufferutil.obj
 0002:000087f4       ??_C@_05DPKBJALF@merge@    000000018001e7f4     bufferutil.obj
 0002:00008800       ??_C@_0L@DGEFJNAP@BufferUtil@ 000000018001e800     bufferutil.obj
 0002:00008810       ??_C@_0DJ@DHDCGJFE@e?3?2hackathon?2kj?2node_modules?2we@ 000000018001e810     bufferutil.obj
 0002:00008850       ??_C@_0L@HBBIDNNM@bufferutil@ 000000018001e850     bufferutil.obj
 0002:00008860       ??_7BufferUtil@@6B@        000000018001e860     bufferutil.obj
 0002:00008860       ??_7ObjectWrap@node@@6B@   000000018001e860     bufferutil.obj
 0002:00008878       ??_C@_08JDDNMFDB@node?4exe@ 000000018001e878     win_delay_load_hook.obj
 0002:00008888       __pfnDliNotifyHook2        000000018001e888     win_delay_load_hook.obj
 0002:00008900       ??_R4exception@std@@6B@    000000018001e900     LIBCMT:throw_bad_alloc.obj
 0002:00008928       ??_R3exception@std@@8      000000018001e928     LIBCMT:throw_bad_alloc.obj
 0002:00008940       ??_R2exception@std@@8      000000018001e940     LIBCMT:throw_bad_alloc.obj
 0002:00008950       ??_R1A@?0A@EA@exception@std@@8 000000018001e950     LIBCMT:throw_bad_alloc.obj
 0002:00008978       ??_R4bad_alloc@std@@6B@    000000018001e978     LIBCMT:throw_bad_alloc.obj
 0002:000089a0       ??_R3bad_alloc@std@@8      000000018001e9a0     LIBCMT:throw_bad_alloc.obj
 0002:000089b8       ??_R2bad_alloc@std@@8      000000018001e9b8     LIBCMT:throw_bad_alloc.obj
 0002:000089d0       ??_R1A@?0A@EA@bad_alloc@std@@8 000000018001e9d0     LIBCMT:throw_bad_alloc.obj
 0002:000089f8       ??_R4bad_array_new_length@std@@6B@ 000000018001e9f8     LIBCMT:throw_bad_alloc.obj
 0002:00008a20       ??_R3bad_array_new_length@std@@8 000000018001ea20     LIBCMT:throw_bad_alloc.obj
 0002:00008a38       ??_R2bad_array_new_length@std@@8 000000018001ea38     LIBCMT:throw_bad_alloc.obj
 0002:00008a58       ??_R1A@?0A@EA@bad_array_new_length@std@@8 000000018001ea58     LIBCMT:throw_bad_alloc.obj
 0002:00008a80       ??_R4type_info@@6B@        000000018001ea80     LIBCMT:std_type_info_static.obj
 0002:00008aa8       ??_R3type_info@@8          000000018001eaa8     LIBCMT:std_type_info_static.obj
 0002:00008ac0       ??_R2type_info@@8          000000018001eac0     LIBCMT:std_type_info_static.obj
 0002:00008ad0       ??_R1A@?0A@EA@type_info@@8 000000018001ead0     LIBCMT:std_type_info_static.obj
 0002:00008ea8       __rtc_iaa                  000000018001eea8     LIBCMT:initsect.obj
 0002:00008eb0       __rtc_izz                  000000018001eeb0     LIBCMT:initsect.obj
 0002:00008eb8       __rtc_taa                  000000018001eeb8     LIBCMT:initsect.obj
 0002:00008ec0       __rtc_tzz                  000000018001eec0     LIBCMT:initsect.obj
 0002:00009eb0       _TI2?AVbad_alloc@std@@     000000018001feb0     LIBCMT:throw_bad_alloc.obj
 0002:00009ed0       _CTA2?AVbad_alloc@std@@    000000018001fed0     LIBCMT:throw_bad_alloc.obj
 0002:00009ee8       _CT??_R0?AVbad_alloc@std@@@8??0bad_alloc@std@@QEAA@AEBV01@@Z24 000000018001fee8     LIBCMT:throw_bad_alloc.obj
 0002:00009f10       _CT??_R0?AVexception@std@@@8??0exception@std@@QEAA@AEBV01@@Z24 000000018001ff10     LIBCMT:throw_bad_alloc.obj
 0002:00009f38       _TI3?AVbad_array_new_length@std@@ 000000018001ff38     LIBCMT:throw_bad_alloc.obj
 0002:00009f58       _CTA3?AVbad_array_new_length@std@@ 000000018001ff58     LIBCMT:throw_bad_alloc.obj
 0002:00009f78       _CT??_R0?AVbad_array_new_length@std@@@8??0bad_array_new_length@std@@QEAA@AEBV01@@Z24 000000018001ff78     LIBCMT:throw_bad_alloc.obj
 0002:00009f9c       __DELAY_IMPORT_DESCRIPTOR_node_exe 000000018001ff9c     node:node.exe
 0002:00009fbc       __NULL_DELAY_IMPORT_DESCRIPTOR 000000018001ffbc     node:node.exe
 0002:0000a118       \177node_NULL_THUNK_DATA_DLN 0000000180020118     node:node.exe
 0002:0000ac28       \177node_NULL_THUNK_DATA_DLB 0000000180020c28     node:node.exe
 0002:0000adb8       __IMPORT_DESCRIPTOR_KERNEL32 0000000180020db8     kernel32:KERNEL32.dll
 0002:0000adcc       __NULL_IMPORT_DESCRIPTOR   0000000180020dcc     kernel32:KERNEL32.dll
 0003:00000000       __security_cookie_complement 0000000180022000     LIBCMT:gs_cookie.obj
 0003:00000008       __security_cookie          0000000180022008     LIBCMT:gs_cookie.obj
 0003:00000010       __scrt_native_dllmain_reason 0000000180022010     LIBCMT:utility.obj
 0003:00000018       __isa_available            0000000180022018     LIBCMT:cpu_disp.obj
 0003:0000001c       __isa_enabled              000000018002201c     LIBCMT:cpu_disp.obj
 0003:00000020       __memcpy_nt_iters          0000000180022020     LIBCMT:cpu_disp.obj
 0003:00000040       __abort_behavior           0000000180022040     libucrt:abort.obj
 0003:00000050       _iob                       0000000180022050     libucrt:_file.obj
 0003:00000160       __acrt_initial_locale_data 0000000180022160     libucrt:nlsdata.obj
 0003:000002b8       __acrt_initial_locale_pointers 00000001800222b8     libucrt:nlsdata.obj
 0003:000002c8       __acrt_wide_c_locale_string 00000001800222c8     libucrt:nlsdata.obj
 0003:000005e0       __acrt_initial_multibyte_data 00000001800225e0     libucrt:mbctype.obj
 0003:00000810       __badioinfo                0000000180022810     libucrt:ioinit.obj
 0003:00000858       _pwctype                   0000000180022858     libucrt:ctype.obj
 0003:00000860       __globallocalestatus       0000000180022860     libucrt:glstatus.obj
 0003:00000870       __acrt_lconv_c             0000000180022870     libucrt:localeconv.obj
 0003:00000908       __acrt_lconv_static_decimal 0000000180022908     libucrt:localeconv.obj
 0003:0000090c       __acrt_lconv_static_W_decimal 000000018002290c     libucrt:localeconv.obj
 0003:00000910       _lookuptrailbytes          0000000180022910     libucrt:read.obj
 0003:00000a30       _fltused                   0000000180022a30     LIBCMT:fltused.obj
 0003:00000a80       ??_R0?AVbad_alloc@std@@@8  0000000180022a80     LIBCMT:throw_bad_alloc.obj
 0003:00000aa8       ??_R0?AVexception@std@@@8  0000000180022aa8     LIBCMT:throw_bad_alloc.obj
 0003:00000ad0       ??_R0?AVbad_array_new_length@std@@@8 0000000180022ad0     LIBCMT:throw_bad_alloc.obj
 0003:00000b00       ??_R0?AVtype_info@@@8      0000000180022b00     LIBCMT:std_type_info_static.obj
 0003:00000b20       __imp_?Value@External@v8@@QEBAPEAXXZ 0000000180022b20     node:node.exe
 0003:00000b28       __imp_?New@External@v8@@SA?AV?$Local@VExternal@v8@@@2@PEAVIsolate@2@PEAX@Z 0000000180022b28     node:node.exe
 0003:00000b30       __imp_?NewFromUnsigned@Integer@v8@@SA?AV?$Local@VInteger@v8@@@2@PEAVIsolate@2@I@Z 0000000180022b30     node:node.exe
 0003:00000b38       __imp_?GetCurrentContext@Isolate@v8@@QEAA?AV?$Local@VContext@v8@@@2@XZ 0000000180022b38     node:node.exe
 0003:00000b40       __imp_?GetCurrent@Isolate@v8@@SAPEAV12@XZ 0000000180022b40     node:node.exe
 0003:00000b48       __imp_?CreateHandle@HandleScope@v8@@KAPEAPEAVObject@internal@2@PEAVIsolate@42@PEAV342@@Z 0000000180022b48     node:node.exe
 0003:00000b50       __imp_?CreateHandle@HandleScope@v8@@CAPEAPEAVObject@internal@2@PEAVHeapObject@42@PEAV342@@Z 0000000180022b50     node:node.exe
 0003:00000b58       __imp_??1HandleScope@v8@@QEAA@XZ 0000000180022b58     node:node.exe
 0003:00000b60       __imp_??0HandleScope@v8@@QEAA@PEAVIsolate@1@@Z 0000000180022b60     node:node.exe
 0003:00000b68       __imp_?Set@Template@v8@@QEAAXV?$Local@VName@v8@@@2@V?$Local@VData@v8@@@2@W4PropertyAttribute@2@@Z 0000000180022b68     node:node.exe
 0003:00000b70       __imp_?Length@Array@v8@@QEBAIXZ 0000000180022b70     node:node.exe
 0003:00000b78       __imp_?SetClassName@FunctionTemplate@v8@@QEAAXV?$Local@VString@v8@@@2@@Z 0000000180022b78     node:node.exe
 0003:00000b80       __imp_?InstanceTemplate@FunctionTemplate@v8@@QEAA?AV?$Local@VObjectTemplate@v8@@@2@XZ 0000000180022b80     node:node.exe
 0003:00000b88       __imp_?GetFunction@FunctionTemplate@v8@@QEAA?AV?$MaybeLocal@VFunction@v8@@@2@V?$Local@VContext@v8@@@2@@Z 0000000180022b88     node:node.exe
 0003:00000b90       __imp_?New@FunctionTemplate@v8@@SA?AV?$Local@VFunctionTemplate@v8@@@2@PEAVIsolate@2@P6AXAEBV?$FunctionCallbackInfo@VValue@v8@@@2@@ZV?$Local@VValue@v8@@@2@V?$Local@VSignature@v8@@@2@HW4ConstructorBehavior@2@W4SideEffectType@2@@Z 0000000180022b90     node:node.exe
 0003:00000b98       __imp_?ToLocalEmpty@V8@v8@@CAXXZ 0000000180022b98     node:node.exe
 0003:00000ba0       __imp_?ClearWeak@V8@v8@@CAPEAXPEAPEAVObject@internal@2@@Z 0000000180022ba0     node:node.exe
 0003:00000ba8       __imp_?MakeWeak@V8@v8@@CAXPEAPEAVObject@internal@2@PEAXP6AXAEBV?$WeakCallbackInfo@X@2@@ZW4WeakCallbackType@2@@Z 0000000180022ba8     node:node.exe
 0003:00000bb0       __imp_?DisposeGlobal@V8@v8@@CAXPEAPEAVObject@internal@2@@Z 0000000180022bb0     node:node.exe
 0003:00000bb8       __imp_?GlobalizeReference@V8@v8@@CAPEAPEAVObject@internal@2@PEAVIsolate@42@PEAPEAV342@@Z 0000000180022bb8     node:node.exe
 0003:00000bc0       __imp_?ToInt32@Value@v8@@QEBA?AV?$MaybeLocal@VInt32@v8@@@2@V?$Local@VContext@v8@@@2@@Z 0000000180022bc0     node:node.exe
 0003:00000bc8       __imp_?ToUint32@Value@v8@@QEBA?AV?$MaybeLocal@VUint32@v8@@@2@V?$Local@VContext@v8@@@2@@Z 0000000180022bc8     node:node.exe
 0003:00000bd0       __imp_?ToObject@Value@v8@@QEBA?AV?$MaybeLocal@VObject@v8@@@2@V?$Local@VContext@v8@@@2@@Z 0000000180022bd0     node:node.exe
 0003:00000bd8       __imp_?Escape@EscapableHandleScope@v8@@AEAAPEAPEAVObject@internal@2@PEAPEAV342@@Z 0000000180022bd8     node:node.exe
 0003:00000be0       __imp_??0EscapableHandleScope@v8@@QEAA@PEAVIsolate@1@@Z 0000000180022be0     node:node.exe
 0003:00000be8       __imp_?NewFromUtf8@String@v8@@SA?AV?$MaybeLocal@VString@v8@@@2@PEAVIsolate@2@PEBDW4NewStringType@2@H@Z 0000000180022be8     node:node.exe
 0003:00000bf0       __imp_?Value@Int32@v8@@QEBAHXZ 0000000180022bf0     node:node.exe
 0003:00000bf8       __imp_?SlowGetInternalField@Object@v8@@AEAA?AV?$Local@VValue@v8@@@2@H@Z 0000000180022bf8     node:node.exe
 0003:00000c00       __imp_?SetAlignedPointerInInternalField@Object@v8@@QEAAXHPEAX@Z 0000000180022c00     node:node.exe
 0003:00000c08       __imp_?SetInternalField@Object@v8@@QEAAXHV?$Local@VValue@v8@@@2@@Z 0000000180022c08     node:node.exe
 0003:00000c10       __imp_?InternalFieldCount@Object@v8@@QEAAHXZ 0000000180022c10     node:node.exe
 0003:00000c18       __imp_?Get@Object@v8@@QEAA?AV?$MaybeLocal@VValue@v8@@@2@V?$Local@VContext@v8@@@2@V?$Local@VValue@v8@@@2@@Z 0000000180022c18     node:node.exe
 0003:00000c20       __imp_?Set@Object@v8@@QEAA?AV?$Maybe@_N@2@V?$Local@VContext@v8@@@2@V?$Local@VValue@v8@@@2@1@Z 0000000180022c20     node:node.exe
 0003:00000c28       __imp_?SetInternalFieldCount@ObjectTemplate@v8@@QEAAXH@Z 0000000180022c28     node:node.exe
 0003:00000c30       __imp_?NewInstance@ObjectTemplate@v8@@QEAA?AV?$MaybeLocal@VObject@v8@@@2@V?$Local@VContext@v8@@@2@@Z 0000000180022c30     node:node.exe
 0003:00000c38       __imp_?New@ObjectTemplate@v8@@SA?AV?$Local@VObjectTemplate@v8@@@2@PEAVIsolate@2@V?$Local@VFunctionTemplate@v8@@@2@@Z 0000000180022c38     node:node.exe
 0003:00000c40       __imp_node_module_register 0000000180022c40     node:node.exe
 0003:00000c48       __imp_?Data@Buffer@node@@YAPEADV?$Local@VObject@v8@@@v8@@@Z 0000000180022c48     node:node.exe
 0003:00000c50       __imp_?Length@Buffer@node@@YA_KV?$Local@VObject@v8@@@v8@@@Z 0000000180022c50     node:node.exe
 0003:00000c58       \177node_NULL_THUNK_DATA_DLA 0000000180022c58     node:node.exe
 0003:00000c60       __hmod__node_exe           0000000180022c60     node:node.exe
 0003:000011e0       ?__type_info_root_node@@3U__type_info_node@@A 00000001800231e0     LIBCMT:tncleanup.obj
 0003:000011f0       ?_OptionsStorage@?1??__local_stdio_printf_options@@9@4_KA 00000001800231f0     LIBCMT:default_local_stdio_options.obj
 0003:000011f8       ?_OptionsStorage@?1??__local_stdio_scanf_options@@9@4_KA 00000001800231f8     LIBCMT:default_local_stdio_options.obj
 0003:00001200       __scrt_current_native_startup_state 0000000180023200     LIBCMT:utility.obj
 0003:00001208       __scrt_native_startup_lock 0000000180023208     LIBCMT:utility.obj
 0003:00001248       __scrt_debugger_hook_flag  0000000180023248     LIBCMT:utility_desktop.obj
 0003:0000124c       __favor                    000000018002324c     LIBCMT:cpu_disp.obj
 0003:00001250       ?__WinRTOutOfMemoryExceptionCallback@@3P6APEAXXZEA 0000000180023250     libvcruntime:ehhelpers.obj
 0003:00001258       ?pArgList@UnDecorator@@0PEAVReplicator@@EA 0000000180023258     libvcruntime:undname.obj
 0003:00001260       ?pZNameList@UnDecorator@@0PEAVReplicator@@EA 0000000180023260     libvcruntime:undname.obj
 0003:00001268       ?pTemplateArgList@UnDecorator@@0PEAVReplicator@@EA 0000000180023268     libvcruntime:undname.obj
 0003:00001270       ?gName@UnDecorator@@0PEBDEB 0000000180023270     libvcruntime:undname.obj
 0003:00001278       ?name@UnDecorator@@0PEBDEB 0000000180023278     libvcruntime:undname.obj
 0003:00001280       ?disableFlags@UnDecorator@@0KA 0000000180023280     libvcruntime:undname.obj
 0003:00001284       ?fExplicitTemplateParams@UnDecorator@@0_NA 0000000180023284     libvcruntime:undname.obj
 0003:00001285       ?fGetTemplateArgumentList@UnDecorator@@0_NA 0000000180023285     libvcruntime:undname.obj
 0003:00001288       ?m_pGetParameter@UnDecorator@@0P6APEADJ@ZEA 0000000180023288     libvcruntime:undname.obj
 0003:00001290       ?m_CHPENameOffset@UnDecorator@@0KA 0000000180023290     libvcruntime:undname.obj
 0003:00001294       ?m_recursionLevel@UnDecorator@@0KA 0000000180023294     libvcruntime:undname.obj
 0003:000013c0       __pPurecall                00000001800233c0     libvcruntime:purevirt_data.obj
 0003:000013e0       ?c_exit_complete@?1???R<lambda_6e4b09c48022b2350581041d5f6b0c4c>@@QEBA@XZ@4_NA 00000001800233e0     libucrt:exit.obj
 0003:000014f8       _environ_table             00000001800234f8     libucrt:environment_initialization.obj
 0003:00001500       _wenviron_table            0000000180023500     libucrt:environment_initialization.obj
 0003:00001508       __dcrt_initial_wide_environment 0000000180023508     libucrt:environment_initialization.obj
 0003:00001510       __dcrt_initial_narrow_environment 0000000180023510     libucrt:environment_initialization.obj
 0003:00001518       __acrt_atexit_table        0000000180023518     libucrt:onexit.obj
 0003:00001530       __acrt_at_quick_exit_table 0000000180023530     libucrt:onexit.obj
 0003:00001558       _nstream                   0000000180023558     libucrt:_file.obj
 0003:00001560       __piob                     0000000180023560     libucrt:_file.obj
 0003:00001568       _cflush                    0000000180023568     libucrt:_file.obj
 0003:00001590       __acrt_locale_changed_data 0000000180023590     libucrt:wsetlocale.obj
 0003:00001598       __acrt_current_locale_data 0000000180023598     libucrt:nlsdata.obj
 0003:000017e0       _mbctype                   00000001800237e0     libucrt:mbctype.obj
 0003:000017e8       _mbcasemap                 00000001800237e8     libucrt:mbctype.obj
 0003:000017f0       __acrt_current_multibyte_data 00000001800237f0     libucrt:mbctype.obj
 0003:00001800       _pgmptr                    0000000180023800     libucrt:argv_data.obj
 0003:00001808       __argc                     0000000180023808     libucrt:argv_data.obj
 0003:00001810       __argv                     0000000180023810     libucrt:argv_data.obj
 0003:00001818       __wargv                    0000000180023818     libucrt:argv_data.obj
 0003:00001820       _acmdln                    0000000180023820     libucrt:argv_data.obj
 0003:00001828       _wcmdln                    0000000180023828     libucrt:argv_data.obj
 0003:000019e0       __acrt_heap                00000001800239e0     libucrt:heap_handle.obj
 0003:000019f0       __pioinfo                  00000001800239f0     libucrt:ioinit.obj
 0003:00001df0       _nhandle                   0000000180023df0     libucrt:ioinit.obj
 0003:00001e00       __acrt_stdout_buffer       0000000180023e00     libucrt:_sftbuf.obj
 0003:00001e08       __acrt_stderr_buffer       0000000180023e08     libucrt:_sftbuf.obj
 0003:00001e20       __acrt_lconv_static_null   0000000180023e20     libucrt:localeconv.obj
 0003:00001e24       __acrt_lconv_static_W_null 0000000180023e24     libucrt:localeconv.obj
 0003:00001e38       __fma3_is_available        0000000180023e38     libucrt:fma3_available.obj
 0003:00001e3c       __use_fma3_lib             0000000180023e3c     libucrt:fma3_available.obj
 0003:00001e40       ?DloadKernel32@@3PEAUHINSTANCE__@@EA 0000000180023e40     DelayImp:delayhlp.obj
 0003:00001e48       ?DloadAcquireSRWLockExclusive@@3P6AXPEA_K@ZEA 0000000180023e48     DelayImp:delayhlp.obj
 0003:00001e50       ?DloadReleaseSRWLockExclusive@@3P6AXPEA_K@ZEA 0000000180023e50     DelayImp:delayhlp.obj
 0003:00001e58       ?DloadSrwLock@@3_KA        0000000180023e58     DelayImp:delayhlp.obj
 0003:00001e60       ?DloadSectionLockCount@@3KA 0000000180023e60     DelayImp:delayhlp.obj
 0003:00001e64       ?DloadSectionOldProtection@@3KA 0000000180023e64     DelayImp:delayhlp.obj
 0003:00001e68       ?DloadSectionCommitPermanent@@3KA 0000000180023e68     DelayImp:delayhlp.obj
 0003:00001e6c       __scrt_ucrt_dll_is_in_use  0000000180023e6c     <common>
 0003:00001e70       __dyn_tls_init_callback    0000000180023e70     <common>

 entry point at        0001:00001868

 Static symbols

 0000:fffd8000       .debug$S                   0000000180000000     kernel32:KERNEL32.dll
 0000:fffd8000       .debug$S                   0000000180000000     node:node.exe
 0000:fffd8000       .debug$S                   0000000180000000     node:node.exe
 0000:fffd8000       .debug$S                   0000000180000000     kernel32:KERNEL32.dll
 0000:fffd8000       .debug$S                   0000000180000000     node:node.exe
 0000:fffd8000       .debug$S                   0000000180000000     node:node.exe
 0000:fffd8000       .debug$S                   0000000180000000     kernel32:KERNEL32.dll
 0000:fffd8000       .debug$S                   0000000180000000     node:node.exe
 0000:fffd8000       .debug$S                   0000000180000000     kernel32:KERNEL32.dll
 0000:fffd8000       .debug$S                   0000000180000000     node:node.exe
 0000:fffd8000       .debug$S                   0000000180000000     kernel32:KERNEL32.dll
 0000:fffd8000       .debug$S                   0000000180000000     node:node.exe
 0000:fffd8000       .debug$S                   0000000180000000     node:node.exe
 0000:fffd8000       .debug$S                   0000000180000000     node:node.exe
 0000:fffd8000       .debug$S                   0000000180000000     node:node.exe
 0000:fffd8000       .debug$S                   0000000180000000     node:node.exe
 0000:fffd8000       .debug$S                   0000000180000000     node:node.exe
 0000:fffd8000       .debug$S                   0000000180000000     node:node.exe
 0000:fffd8000       .debug$S                   0000000180000000     node:node.exe
 0000:fffd8000       .debug$S                   0000000180000000     node:node.exe
 0000:fffd8000       .debug$S                   0000000180000000     node:node.exe
 0000:fffd8000       .debug$S                   0000000180000000     node:node.exe
 0000:fffd8000       .debug$S                   0000000180000000     node:node.exe
 0000:fffd8000       .debug$S                   0000000180000000     node:node.exe
 0000:fffd8000       .debug$S                   0000000180000000     node:node.exe
 0000:fffd8000       .debug$S                   0000000180000000     node:node.exe
 0000:fffd8000       .debug$S                   0000000180000000     node:node.exe
 0000:fffd8000       .debug$S                   0000000180000000     node:node.exe
 0000:fffd8000       .debug$S                   0000000180000000     node:node.exe
 0000:fffd8000       .debug$S                   0000000180000000     node:node.exe
 0000:fffd8000       .debug$S                   0000000180000000     node:node.exe
 0000:fffd8000       .debug$S                   0000000180000000     node:node.exe
 0000:fffd8000       .debug$S                   0000000180000000     node:node.exe
 0000:fffd8000       .debug$S                   0000000180000000     node:node.exe
 0000:fffd8000       .debug$S                   0000000180000000     node:node.exe
 0000:fffd8000       .debug$S                   0000000180000000     node:node.exe
 0000:fffd8000       .debug$S                   0000000180000000     node:node.exe
 0000:fffd8000       .debug$S                   0000000180000000     node:node.exe
 0000:fffd8000       .debug$S                   0000000180000000     node:node.exe
 0000:fffd8000       .debug$S                   0000000180000000     kernel32:KERNEL32.dll
 0000:fffd8000       .debug$S                   0000000180000000     kernel32:KERNEL32.dll
 0000:fffd8000       .debug$S                   0000000180000000     node:node.exe
 0000:fffd8000       .debug$S                   0000000180000000     node:node.exe
 0000:fffd8000       .debug$S                   0000000180000000     node:node.exe
 0000:fffd8000       .debug$S                   0000000180000000     node:node.exe
 0000:fffd8000       .debug$S                   0000000180000000     node:node.exe
 0000:fffd8000       .debug$S                   0000000180000000     bufferutil.exp
 0000:fffd8000       .debug$S                   0000000180000000     node:node.exe
 0000:fffd8000       .debug$S                   0000000180000000     kernel32:KERNEL32.dll
 0000:fffd8000       .debug$S                   0000000180000000     kernel32:KERNEL32.dll
 0000:fffd8000       .debug$S                   0000000180000000     kernel32:KERNEL32.dll
 0000:fffd8000       .debug$S                   0000000180000000     kernel32:KERNEL32.dll
 0000:fffd8000       .debug$S                   0000000180000000     kernel32:KERNEL32.dll
 0000:fffd8000       .debug$S                   0000000180000000     node:node.exe
 0000:fffd8000       .debug$S                   0000000180000000     node:node.exe
 0000:fffd8000       .debug$S                   0000000180000000     kernel32:KERNEL32.dll
 0000:fffd8000       .debug$S                   0000000180000000     node:node.exe
 0000:fffd8000       .debug$S                   0000000180000000     kernel32:KERNEL32.dll
 0000:fffd8000       .debug$S                   0000000180000000     node:node.exe
 0000:fffd8000       .debug$S                   0000000180000000     kernel32:KERNEL32.dll
 0000:fffd8000       .debug$S                   0000000180000000     kernel32:KERNEL32.dll
 0000:fffd8000       .debug$S                   0000000180000000     kernel32:KERNEL32.dll
 0000:fffd8000       .debug$S                   0000000180000000     kernel32:KERNEL32.dll
 0000:fffd8000       .debug$S                   0000000180000000     kernel32:KERNEL32.dll
 0000:fffd8000       .debug$S                   0000000180000000     kernel32:KERNEL32.dll
 0000:fffd8000       .debug$S                   0000000180000000     kernel32:KERNEL32.dll
 0000:fffd8000       .debug$S                   0000000180000000     kernel32:KERNEL32.dll
 0000:fffd8000       .debug$S                   0000000180000000     kernel32:KERNEL32.dll
 0000:fffd8000       .debug$S                   0000000180000000     kernel32:KERNEL32.dll
 0000:fffd8000       .debug$S                   0000000180000000     kernel32:KERNEL32.dll
 0000:fffd8000       .debug$S                   0000000180000000     kernel32:KERNEL32.dll
 0000:fffd8000       .debug$S                   0000000180000000     kernel32:KERNEL32.dll
 0000:fffd8000       .debug$S                   0000000180000000     kernel32:KERNEL32.dll
 0000:fffd8000       .debug$S                   0000000180000000     kernel32:KERNEL32.dll
 0000:fffd8000       .debug$S                   0000000180000000     kernel32:KERNEL32.dll
 0000:fffd8000       .debug$S                   0000000180000000     kernel32:KERNEL32.dll
 0000:fffd8000       .debug$S                   0000000180000000     kernel32:KERNEL32.dll
 0000:fffd8000       .debug$S                   0000000180000000     kernel32:KERNEL32.dll
 0000:fffd8000       .debug$S                   0000000180000000     kernel32:KERNEL32.dll
 0000:fffd8000       .debug$S                   0000000180000000     kernel32:KERNEL32.dll
 0000:fffd8000       .debug$S                   0000000180000000     kernel32:KERNEL32.dll
 0000:fffd8000       .debug$S                   0000000180000000     kernel32:KERNEL32.dll
 0000:fffd8000       .debug$S                   0000000180000000     kernel32:KERNEL32.dll
 0000:fffd8000       .debug$S                   0000000180000000     kernel32:KERNEL32.dll
 0000:fffd8000       .debug$S                   0000000180000000     kernel32:KERNEL32.dll
 0000:fffd8000       .debug$S                   0000000180000000     kernel32:KERNEL32.dll
 0000:fffd8000       .debug$S                   0000000180000000     kernel32:KERNEL32.dll
 0000:fffd8000       .debug$S                   0000000180000000     kernel32:KERNEL32.dll
 0000:fffd8000       .debug$S                   0000000180000000     kernel32:KERNEL32.dll
 0000:fffd8000       .debug$S                   0000000180000000     kernel32:KERNEL32.dll
 0000:fffd8000       .debug$S                   0000000180000000     kernel32:KERNEL32.dll
 0000:fffd8000       .debug$S                   0000000180000000     kernel32:KERNEL32.dll
 0000:fffd8000       .debug$S                   0000000180000000     kernel32:KERNEL32.dll
 0000:fffd8000       .debug$S                   0000000180000000     kernel32:KERNEL32.dll
 0000:fffd8000       .debug$S                   0000000180000000     kernel32:KERNEL32.dll
 0000:fffd8000       .debug$S                   0000000180000000     kernel32:KERNEL32.dll
 0000:fffd8000       .debug$S                   0000000180000000     kernel32:KERNEL32.dll
 0000:fffd8000       .debug$S                   0000000180000000     kernel32:KERNEL32.dll
 0000:fffd8000       .debug$S                   0000000180000000     kernel32:KERNEL32.dll
 0000:fffd8000       .debug$S                   0000000180000000     kernel32:KERNEL32.dll
 0000:fffd8000       .debug$S                   0000000180000000     kernel32:KERNEL32.dll
 0000:fffd8000       .debug$S                   0000000180000000     kernel32:KERNEL32.dll
 0000:fffd8000       .debug$S                   0000000180000000     kernel32:KERNEL32.dll
 0000:fffd8000       .debug$S                   0000000180000000     kernel32:KERNEL32.dll
 0000:fffd8000       .debug$S                   0000000180000000     kernel32:KERNEL32.dll
 0000:fffd8000       .debug$S                   0000000180000000     kernel32:KERNEL32.dll
 0000:fffd8000       .debug$S                   0000000180000000     kernel32:KERNEL32.dll
 0000:fffd8000       .debug$S                   0000000180000000     kernel32:KERNEL32.dll
 0000:fffd8000       .debug$S                   0000000180000000     kernel32:KERNEL32.dll
 0000:fffd8000       .debug$S                   0000000180000000     kernel32:KERNEL32.dll
 0000:fffd8000       .debug$S                   0000000180000000     kernel32:KERNEL32.dll
 0000:fffd8000       .debug$S                   0000000180000000     kernel32:KERNEL32.dll
 0000:fffd8000       .debug$S                   0000000180000000     kernel32:KERNEL32.dll
 0000:fffd8000       .debug$S                   0000000180000000     kernel32:KERNEL32.dll
 0000:fffd8000       .debug$S                   0000000180000000     kernel32:KERNEL32.dll
 0000:fffd8000       .debug$S                   0000000180000000     kernel32:KERNEL32.dll
 0000:fffd8000       .debug$S                   0000000180000000     kernel32:KERNEL32.dll
 0000:fffd8000       .debug$S                   0000000180000000     kernel32:KERNEL32.dll
 0000:fffd8000       .debug$S                   0000000180000000     kernel32:KERNEL32.dll
 0000:fffd8000       .debug$S                   0000000180000000     kernel32:KERNEL32.dll
 0000:fffd8000       .debug$S                   0000000180000000     kernel32:KERNEL32.dll
 0000:fffd8000       .debug$S                   0000000180000000     kernel32:KERNEL32.dll
 0000:fffd8000       .debug$S                   0000000180000000     kernel32:KERNEL32.dll
 0000:fffd8000       .debug$S                   0000000180000000     kernel32:KERNEL32.dll
 0000:fffd8000       .debug$S                   0000000180000000     kernel32:KERNEL32.dll
 0000:fffd8000       .debug$S                   0000000180000000     kernel32:KERNEL32.dll
 0000:fffd8000       .debug$S                   0000000180000000     kernel32:KERNEL32.dll
 0000:fffd8000       .debug$S                   0000000180000000     kernel32:KERNEL32.dll
 0000:fffd8000       .debug$S                   0000000180000000     kernel32:KERNEL32.dll
 0000:fffd8000       .debug$S                   0000000180000000     kernel32:KERNEL32.dll
 0000:fffd8000       .debug$S                   0000000180000000     kernel32:KERNEL32.dll
 0000:fffd8000       .debug$S                   0000000180000000     kernel32:KERNEL32.dll
 0000:fffd8000       .debug$S                   0000000180000000     kernel32:KERNEL32.dll
 0000:fffd8000       .debug$S                   0000000180000000     kernel32:KERNEL32.dll
 0001:000001e0       ?FunctionCallbackWrapper@imp@Nan@@YAXAEBV?$FunctionCallbackInfo@VValue@v8@@@v8@@@Z 00000001800011e0 f   bufferutil.obj
 0001:00001060       _register_bufferutil       0000000180002060 f   bufferutil.obj
 0001:00001230       ?load_exe_hook@@YAP6A_JXZIPEAUDelayLoadInfo@@@Z 0000000180002230 f   win_delay_load_hook.obj
 0001:000014c0       $$000000                   00000001800024c0     LIBCMT:amdsecgs.obj
 0001:00001538       ?dllmain_crt_dispatch@@YAHQEAUHINSTANCE__@@KQEAX@Z 0000000180002538 f   LIBCMT:dll_dllmain.obj
 0001:00001588       ?dllmain_crt_process_attach@@YAHQEAUHINSTANCE__@@QEAX@Z 0000000180002588 f   LIBCMT:dll_dllmain.obj
 0001:000016a4       ?dllmain_crt_process_detach@@YAH_N@Z 00000001800026a4 f   LIBCMT:dll_dllmain.obj
 0001:00001734       ?dllmain_dispatch@@YAHQEAUHINSTANCE__@@KQEAX@Z 0000000180002734 f   LIBCMT:dll_dllmain.obj
 0001:00001a60       capture_current_context    0000000180002a60 f   LIBCMT:gs_report.obj
 0001:00001ad0       capture_previous_context   0000000180002ad0 f   LIBCMT:gs_report.obj
 0001:00002940       $$000000                   0000000180003940     libvcruntime:memset.obj
 0001:00002a3c       MsetTab                    0000000180003a3c     libvcruntime:memset.obj
 0001:00002b00       $$000000                   0000000180003b00     libvcruntime:notify.obj
 0001:00002e28       ?try_get_function@@YAPEAXW4function_id@?A0x14c33c87@@QEBDQEBW4module_id@2@2@Z 0000000180003e28 f   libvcruntime:winapi_downlevel.obj
 0001:00003210       $$000000                   0000000180004210     libvcruntime:memcpy.obj
 0001:000032c7       MoveSmall                  00000001800042c7     libvcruntime:memcpy.obj
 0001:00003670       $$000000                   0000000180004670     libvcruntime:handlers.obj
 0001:00003718       ??$common_assert_to_message_box@_W@@YAXQEB_W0IQEAX@Z 0000000180004718 f   libucrt:assert.obj
 0001:000037dc       ??$common_assert_to_message_box_build_string@_W@@YAXQEA_W_KQEB_W2IQEAX@Z 00000001800047dc f   libucrt:assert.obj
 0001:00003ce0       ??$common_assert_to_stderr@_W@@YAXQEB_W0I@Z 0000000180004ce0 f   libucrt:assert.obj
 0001:00003e50       ?get_assert_format@@YAPEB_W_W@Z 0000000180004e50 f   libucrt:assert.obj
 0001:00004400       ??$?RV<lambda_d80eeec6fff315bfe5c115232f3240e3>@@AEAV<lambda_6e4b09c48022b2350581041d5f6b0c4c>@@V<lambda_2358e3775559c9db80273638284d5e45>@@@?$__crt_seh_guarded_call@X@@QEAAX$$QEAV<lambda_d80eeec6fff315bfe5c115232f3240e3>@@AEAV<lambda_6e4b09c48022b2350581041d5f6b0c4c>@@$$QEAV<lambda_2358e3775559c9db80273638284d5e45>@@@Z 0000000180005400 f   libucrt:exit.obj
 0001:00004438       ??R<lambda_6e4b09c48022b2350581041d5f6b0c4c>@@QEBA@XZ 0000000180005438 f   libucrt:exit.obj
 0001:000044fc       ?atexit_exception_filter@@YAHK@Z 00000001800054fc f   libucrt:exit.obj
 0001:00004508       ?common_exit@@YAXHW4_crt_exit_cleanup_mode@@W4_crt_exit_return_mode@@@Z 0000000180005508 f   libucrt:exit.obj
 0001:000045c4       ?exit_or_terminate_process@@YAXI@Z 00000001800055c4 f   libucrt:exit.obj
 0001:00004610       ?try_cor_exit_process@@YAXI@Z 0000000180005610 f   libucrt:exit.obj
 0001:00004698       ??$parse_command_line@D@@YAXPEADPEAPEAD0PEA_K2@Z 0000000180005698 f   libucrt:argv_parsing.obj
 0001:00004a44       ??$common_initialize_environment_nolock@D@@YAHXZ 0000000180005a44 f   libucrt:environment_initialization.obj
 0001:00004ab0       ??$create_environment@D@@YAQEAPEADQEAD@Z 0000000180005ab0 f   libucrt:environment_initialization.obj
 0001:00004bb8       ??$free_environment@_W@@YAXQEAPEA_W@Z 0000000180005bb8 f   libucrt:environment_initialization.obj
 0001:00004bb8       ??$free_environment@D@@YAXQEAPEAD@Z 0000000180005bb8 f   libucrt:environment_initialization.obj
 0001:00004bfc       ??$uninitialize_environment_internal@D@@YAXAEAPEAPEAD@Z 0000000180005bfc f   libucrt:environment_initialization.obj
 0001:00004c18       ??$uninitialize_environment_internal@_W@@YAXAEAPEAPEA_W@Z 0000000180005c18 f   libucrt:environment_initialization.obj
 0001:00004c74       ??$?RV<lambda_7777bce6b2f8c936911f934f8298dc43>@@AEAV<lambda_f03950bc5685219e0bcd2087efbe011e>@@V<lambda_3883c3dff614d5e0c5f61bb1ac94921c>@@@?$__crt_seh_guarded_call@H@@QEAAH$$QEAV<lambda_7777bce6b2f8c936911f934f8298dc43>@@AEAV<lambda_f03950bc5685219e0bcd2087efbe011e>@@$$QEAV<lambda_3883c3dff614d5e0c5f61bb1ac94921c>@@@Z 0000000180005c74 f   libucrt:onexit.obj
 0001:00004cb0       ??R<lambda_f03950bc5685219e0bcd2087efbe011e>@@QEBAHXZ 0000000180005cb0 f   libucrt:onexit.obj
 0001:00004e2c       initialize_global_variables 0000000180005e2c f   libucrt:initialization.obj
 0001:00004e40       initialize_c               0000000180005e40 f   libucrt:initialization.obj
 0001:00004e64       uninitialize_c             0000000180005e64 f   libucrt:initialization.obj
 0001:00004e64       initialize_global_state_isolation 0000000180005e64 f   libucrt:initialization.obj
 0001:00004e64       uninitialize_global_state_isolation 0000000180005e64 f   libucrt:initialization.obj
 0001:00004e64       initialize_environment     0000000180005e64 f   libucrt:initialization.obj
 0001:00004e64       report_memory_leaks        0000000180005e64 f   libucrt:initialization.obj
 0001:00004e68       uninitialize_environment   0000000180005e68 f   libucrt:initialization.obj
 0001:00004e78       initialize_pointers        0000000180005e78 f   libucrt:initialization.obj
 0001:00004eb8       uninitialize_vcruntime     0000000180005eb8 f   libucrt:initialization.obj
 0001:00004ec0       uninitialize_allocated_memory 0000000180005ec0 f   libucrt:initialization.obj
 0001:00004f00       uninitialize_allocated_io_buffers 0000000180005f00 f   libucrt:initialization.obj
 0001:0000505c       ??$?RV<lambda_0d412022a4b28cc8a401ea49574e8ae6>@@AEAV<lambda_a775ed57af18ba8e4d5dc780aa9068fe>@@V<lambda_975a71a6baa488a08f4e15f6b0339b9e>@@@?$__crt_seh_guarded_call@H@@QEAAH$$QEAV<lambda_0d412022a4b28cc8a401ea49574e8ae6>@@AEAV<lambda_a775ed57af18ba8e4d5dc780aa9068fe>@@$$QEAV<lambda_975a71a6baa488a08f4e15f6b0339b9e>@@@Z 000000018000605c f   libucrt:output.obj
 0001:0000509c       ??$common_vsprintf@Vstandard_base@__crt_stdio_output@@_W@@YAH_KQEA_W0QEB_WQEAU__crt_locale_pointers@@QEAD@Z 000000018000609c f   libucrt:output.obj
 0001:0000565c       ??R<lambda_a775ed57af18ba8e4d5dc780aa9068fe>@@QEBAHXZ 000000018000665c f   libucrt:output.obj
 0001:00007830       $$000000                   0000000180008830     libucrt:strncmp.obj
 0001:00007ca8       ??$common_xtox@K_W@@YAHKQEA_W_KI_N@Z 0000000180008ca8 f   libucrt:xtoa.obj
 0001:00007d7c       ??$common_xtox_s@K_W@@YAHKQEA_W_KI_N@Z 0000000180008d7c f   libucrt:xtoa.obj
 0001:000084b0       ??$?RV<lambda_842d9ff0dc9ef11c61343bbaebe7f885>@@AEAV<lambda_c5860995281e5c4ce005b3de8f5874ee>@@V<lambda_d90129c13df834fdcbf8d2b88dafcf2d>@@@?$__crt_seh_guarded_call@X@@QEAAX$$QEAV<lambda_842d9ff0dc9ef11c61343bbaebe7f885>@@AEAV<lambda_c5860995281e5c4ce005b3de8f5874ee>@@$$QEAV<lambda_d90129c13df834fdcbf8d2b88dafcf2d>@@@Z 00000001800094b0 f   libucrt:fflush.obj
 0001:0000854c       ??$?RV<lambda_886d6c58226a84441f68b9f2b8217b83>@@AEAV<lambda_ab61a845afdef5b7c387490eaf3616ee>@@V<lambda_f7f22ab5edc0698d5f6905b0d3f44752>@@@?$__crt_seh_guarded_call@X@@QEAAX$$QEAV<lambda_886d6c58226a84441f68b9f2b8217b83>@@AEAV<lambda_ab61a845afdef5b7c387490eaf3616ee>@@$$QEAV<lambda_f7f22ab5edc0698d5f6905b0d3f44752>@@@Z 000000018000954c f   libucrt:fflush.obj
 0001:0000862c       ??$?RV<lambda_c376a267cfb53b6959b3b692ec76b120>@@AEAV<lambda_9a32fed5bf61b6b509b2d3f6003082a1>@@V<lambda_572fbb9fa0ab338edf41edfd4b5fcc8d>@@@?$__crt_seh_guarded_call@H@@QEAAH$$QEAV<lambda_c376a267cfb53b6959b3b692ec76b120>@@AEAV<lambda_9a32fed5bf61b6b509b2d3f6003082a1>@@$$QEAV<lambda_572fbb9fa0ab338edf41edfd4b5fcc8d>@@@Z 000000018000962c f   libucrt:fflush.obj
 0001:0000866c       ?common_flush_all@@YAH_N@Z 000000018000966c f   libucrt:fflush.obj
 0001:00008804       ??$?RV<lambda_84ec643ea9557e2f7dc01bb0e9624395>@@AEAV<lambda_ca71763b3c0644891230e4f79ea54fa6>@@V<lambda_439a761618c59b0600e24586724d733b>@@@?$__crt_seh_guarded_call@H@@QEAAH$$QEAV<lambda_84ec643ea9557e2f7dc01bb0e9624395>@@AEAV<lambda_ca71763b3c0644891230e4f79ea54fa6>@@$$QEAV<lambda_439a761618c59b0600e24586724d733b>@@@Z 0000000180009804 f   libucrt:setvbuf.obj
 0001:00008844       ??R<lambda_ca71763b3c0644891230e4f79ea54fa6>@@QEBAHXZ 0000000180009844 f   libucrt:setvbuf.obj
 0001:000089c0       ??$?RV<lambda_450d765d439847d4c735a33c368b5fc0>@@AEAV<lambda_44731a7d0e6d81c3e6aa82d741081786>@@V<lambda_601a2a7da3b7a96e9554ac7215c4b07c>@@@?$__crt_seh_guarded_call@P6AXH@Z@@QEAAP6AXH@Z$$QEAV<lambda_450d765d439847d4c735a33c368b5fc0>@@AEAV<lambda_44731a7d0e6d81c3e6aa82d741081786>@@$$QEAV<lambda_601a2a7da3b7a96e9554ac7215c4b07c>@@@Z 00000001800099c0 f   libucrt:signal.obj
 0001:00008cc4       ?internal_isupper_l@@YA_NHQEAU__crt_locale_pointers@@@Z 0000000180009cc4 f   libucrt:tolower_toupper.obj
 0001:00008e90       ??$?RV<lambda_0ae27a3a962d80f24befdcbee591983d>@@AEAV<lambda_8d0ee55de4b1038c4002e0adecdf1839>@@V<lambda_dc504788e8f1664fe9b84e20bfb512f2>@@@?$__crt_seh_guarded_call@X@@QEAAX$$QEAV<lambda_0ae27a3a962d80f24befdcbee591983d>@@AEAV<lambda_8d0ee55de4b1038c4002e0adecdf1839>@@$$QEAV<lambda_dc504788e8f1664fe9b84e20bfb512f2>@@@Z 0000000180009e90 f   libucrt:per_thread_data.obj
 0001:00008ed0       ??$?RV<lambda_2d41944a1d46af3157314b8a01080d33>@@AEAV<lambda_8f455de75cd7d7f24b4096f044d8b9e6>@@V<lambda_aa500f224e6afead328df44964fe2772>@@@?$__crt_seh_guarded_call@X@@QEAAX$$QEAV<lambda_2d41944a1d46af3157314b8a01080d33>@@AEAV<lambda_8f455de75cd7d7f24b4096f044d8b9e6>@@$$QEAV<lambda_aa500f224e6afead328df44964fe2772>@@@Z 0000000180009ed0 f   libucrt:per_thread_data.obj
 0001:00008f10       ??$?RV<lambda_aa87e3671a710a21b5dc78c0bdf72e11>@@AEAV<lambda_92619d2358a28f41a33ba319515a20b9>@@V<lambda_6992ecaafeb10aed2b74cb1fae11a551>@@@?$__crt_seh_guarded_call@X@@QEAAX$$QEAV<lambda_aa87e3671a710a21b5dc78c0bdf72e11>@@AEAV<lambda_92619d2358a28f41a33ba319515a20b9>@@$$QEAV<lambda_6992ecaafeb10aed2b74cb1fae11a551>@@@Z 0000000180009f10 f   libucrt:per_thread_data.obj
 0001:00008f58       ??$?RV<lambda_f2e299630e499de9f9a165e60fcd3db5>@@AEAV<lambda_2ae9d31cdba2644fcbeaf08da7c24588>@@V<lambda_40d01ff24d0e7b3814fdbdcee8eab3c7>@@@?$__crt_seh_guarded_call@X@@QEAAX$$QEAV<lambda_f2e299630e499de9f9a165e60fcd3db5>@@AEAV<lambda_2ae9d31cdba2644fcbeaf08da7c24588>@@$$QEAV<lambda_40d01ff24d0e7b3814fdbdcee8eab3c7>@@@Z 0000000180009f58 f   libucrt:per_thread_data.obj
 0001:00008fb8       ?construct_ptd_array@@YAXQEAU__acrt_ptd@@@Z 0000000180009fb8 f   libucrt:per_thread_data.obj
 0001:00009088       ?destroy_fls@@YAXPEAX@Z    000000018000a088 f   libucrt:per_thread_data.obj
 0001:000090a8       ?destroy_ptd_array@@YAXQEAU__acrt_ptd@@@Z 000000018000a0a8 f   libucrt:per_thread_data.obj
 0001:000091a0       ?replace_current_thread_locale_nolock@@YAXQEAU__acrt_ptd@@QEAU__crt_locale_data@@@Z 000000018000a1a0 f   libucrt:per_thread_data.obj
 0001:0000955c       ??$?RV<lambda_410d79af7f07d98d83a3f525b3859a53>@@AEAV<lambda_3e16ef9562a7dcce91392c22ab16ea36>@@V<lambda_38119f0e861e05405d8a144b9b982f0a>@@@?$__crt_seh_guarded_call@X@@QEAAX$$QEAV<lambda_410d79af7f07d98d83a3f525b3859a53>@@AEAV<lambda_3e16ef9562a7dcce91392c22ab16ea36>@@$$QEAV<lambda_38119f0e861e05405d8a144b9b982f0a>@@@Z 000000018000a55c f   libucrt:wsetlocale.obj
 0001:000098d4       ?<lambda_invoker_cdecl>@<lambda_c2303d2482d7c3675ea2e24c4cfb6115>@@CAHPEBX0@Z 000000018000a8d4 f   libucrt:argv_wildcards.obj
 0001:00009bec       ??$common_expand_argv_wildcards@D@@YAHQEAPEADQEAPEAPEAD@Z 000000018000abec f   libucrt:argv_wildcards.obj
 0001:00009df8       ??$copy_and_add_argument_to_buffer@D@@YAHQEBD0_KAEAV?$argument_list@D@?A0x5f5c8891@@@Z 000000018000adf8 f   libucrt:argv_wildcards.obj
 0001:00009f80       ??$expand_argument_wildcards@D@@YAHQEAD0AEAV?$argument_list@D@?A0x5f5c8891@@@Z 000000018000af80 f   libucrt:argv_wildcards.obj
 0001:0000a298       ??$?RV<lambda_efdfa57d1f175319df784efa44bb7b81>@@AEAV<lambda_5f0a4c1567f8adc6734073e5d1e1b35c>@@V<lambda_2e8a7d3640ea6ccb4c2413664c2db6fd>@@@?$__crt_seh_guarded_call@X@@QEAAX$$QEAV<lambda_efdfa57d1f175319df784efa44bb7b81>@@AEAV<lambda_5f0a4c1567f8adc6734073e5d1e1b35c>@@$$QEAV<lambda_2e8a7d3640ea6ccb4c2413664c2db6fd>@@@Z 000000018000b298 f   libucrt:mbctype.obj
 0001:0000a454       ?getSystemCP@@YAHH@Z       000000018000b454 f   libucrt:mbctype.obj
 0001:0000a4d4       ?setSBCS@@YAXPEAU__crt_multibyte_data@@@Z 000000018000b4d4 f   libucrt:mbctype.obj
 0001:0000a564       ?setSBUpLow@@YAXPEAU__crt_multibyte_data@@@Z 000000018000b564 f   libucrt:mbctype.obj
 0001:0000a748       ?setmbcp_internal@@YAHH_NQEAU__acrt_ptd@@QEAPEAU__crt_multibyte_data@@@Z 000000018000b748 f   libucrt:mbctype.obj
 0001:0000a90c       ?update_thread_multibyte_data_internal@@YAPEAU__crt_multibyte_data@@QEAU__acrt_ptd@@QEAPEAU1@@Z 000000018000b90c f   libucrt:mbctype.obj
 0001:0000acfc       ?x_ismbbtype_l@@YAHPEAU__crt_locale_pointers@@IHH@Z 000000018000bcfc f   libucrt:ismbbyte.obj
 0001:0000b040       ?try_get_function@@YAPEAXW4function_id@?A0x391cf84c@@QEBDQEBW4module_id@2@2@Z 000000018000c040 f   libucrt:winapi_thunks.obj
 0001:0000b8c4       ?initialize_inherited_file_handles_nolock@@YAXXZ 000000018000c8c4 f   libucrt:ioinit.obj
 0001:0000b9b4       ?initialize_stdio_handles_nolock@@YAXXZ 000000018000c9b4 f   libucrt:ioinit.obj
 0001:0000c32c       ?fp_format_a@@YAHQEBNPEAD_KQEAD2H_NIQEAU__crt_locale_pointers@@@Z 000000018000d32c f   libucrt:cvt.obj
 0001:0000c69c       ?fp_format_e@@YAHQEBNQEAD_K12H_NIQEAU__crt_locale_pointers@@@Z 000000018000d69c f   libucrt:cvt.obj
 0001:0000c778       ?fp_format_e_internal@@YAHQEAD_KH_NIQEAU_strflt@@2QEAU__crt_locale_pointers@@@Z 000000018000d778 f   libucrt:cvt.obj
 0001:0000c94c       ?fp_format_f_internal@@YAHQEAD_KHQEAU_strflt@@_NQEAU__crt_locale_pointers@@@Z 000000018000d94c f   libucrt:cvt.obj
 0001:0000ca90       ?fp_format_g@@YAHQEBNQEAD_K12H_NIQEAU__crt_locale_pointers@@@Z 000000018000da90 f   libucrt:cvt.obj
 0001:0000cbc4       ?fp_format_nan_or_infinity@@YAHW4__acrt_fp_class@@_NPEAD_K1@Z 000000018000dbc4 f   libucrt:cvt.obj
 0001:0000d400       ??$?RV<lambda_a37b2b86f63e897a80ea819b0eb08c01>@@AEAV<lambda_38ce7e780aa69e748d6df282ebc68efe>@@V<lambda_99fb1378e971ab6e7edea83e3a7a83a2>@@@?$__crt_seh_guarded_call@H@@QEAAH$$QEAV<lambda_a37b2b86f63e897a80ea819b0eb08c01>@@AEAV<lambda_38ce7e780aa69e748d6df282ebc68efe>@@$$QEAV<lambda_99fb1378e971ab6e7edea83e3a7a83a2>@@@Z 000000018000e400 f   libucrt:commit.obj
 0001:0000d520       ?write_double_translated_ansi_nolock@@YA?AUwrite_result@?A0x17268360@@HQEBDI@Z 000000018000e520 f   libucrt:write.obj
 0001:0000d9fc       ?write_text_ansi_nolock@@YA?AUwrite_result@?A0x17268360@@HQEBDI@Z 000000018000e9fc f   libucrt:write.obj
 0001:0000db00       ?write_text_utf16le_nolock@@YA?AUwrite_result@?A0x17268360@@HQEBDI@Z 000000018000eb00 f   libucrt:write.obj
 0001:0000dc1c       ?write_text_utf8_nolock@@YA?AUwrite_result@?A0x17268360@@HQEBDI@Z 000000018000ec1c f   libucrt:write.obj
 0001:0000e1a0       ?__acrt_LCMapStringA_stat@@YAHPEAU__crt_locale_pointers@@PEB_WKPEBDHPEADHHH@Z 000000018000f1a0 f   libucrt:lcmapstringa.obj
 0001:0000ead4       ?free_crt_array_internal@@YAXQEAPEBX_K@Z 000000018000fad4 f   libucrt:inittime.obj
 0001:0000f264       fallbackMethod             0000000180010264 f   libucrt:strpbrk.obj
 0001:0000f634       $LN78                      0000000180010634     libucrt:strpbrk.obj
 0001:0000f670       $LN77                      0000000180010670     libucrt:strpbrk.obj
 0001:0000f6b0       $LN76                      00000001800106b0     libucrt:strpbrk.obj
 0001:0000f78c       ?initialize_multibyte@@YAHXZ 000000018001078c f   libucrt:multibyte_initializer.obj
 0001:0000f85c       ?GetTableIndexFromLocaleName@@YAHPEB_W@Z 000000018001085c f   libucrt:lcidtoname_downlevel.obj
 0001:000116b0       memcpy_s                   00000001800126b0 f   libucrt:cfout.obj
 0001:00011738       ??$write_buffer_nolock@D@@YA_NDV__crt_stdio_stream@@@Z 0000000180012738 f   libucrt:_flsbuf.obj
 0001:0001181c       ??$write_buffer_nolock@_W@@YA_N_WV__crt_stdio_stream@@@Z 000000018001281c f   libucrt:_flsbuf.obj
 0001:00011904       ?stream_is_at_end_of_file_nolock@@YA_NV__crt_stdio_stream@@@Z 0000000180012904 f   libucrt:_flsbuf.obj
 0001:00011c44       ??$common_lseek@_J@@YA_JH_JH@Z 0000000180012c44 f   libucrt:lseek.obj
 0001:00011d34       ??$common_lseek_nolock@_J@@YA_JH_JH@Z 0000000180012d34 f   libucrt:lseek.obj
 0001:000121a0       $$000000                   00000001800131a0     libucrt:log10.obj
 0001:000127b4       ??$?RV<lambda_751a882b2c74d4b022dec766aa51a29a>@@AEAV<lambda_628dfdc04ba53c8bfc02c9951375f3f5>@@V<lambda_f6c7be5f7998530c34de24c7437d6b54>@@@?$__crt_seh_guarded_call@H@@QEAAH$$QEAV<lambda_751a882b2c74d4b022dec766aa51a29a>@@AEAV<lambda_628dfdc04ba53c8bfc02c9951375f3f5>@@$$QEAV<lambda_f6c7be5f7998530c34de24c7437d6b54>@@@Z 00000001800137b4 f   libucrt:close.obj
 0001:00012e5c       _call_matherr              0000000180013e5c f   libucrt:libm_error.obj
 0001:00012ec4       _exception_enabled         0000000180013ec4 f   libucrt:libm_error.obj
 0001:00013160       _log_special_common        0000000180014160 f   libucrt:log_special.obj
 0001:00013200       $$000000                   0000000180014200     libucrt:fpsr.obj
 0001:00013e50       $$000000                   0000000180014e50     LIBCMT:chkstk.obj
 0001:00013ec0       $$000000                   0000000180014ec0     libvcruntime:memcmp.obj
 0001:000140f0       $$000000                   00000001800150f0     LIBCMT:guard_dispatch.obj
 0001:00014110       ?fin$0@?0??dllmain_crt_process_attach@@YAHQEAUHINSTANCE__@@QEAX@Z@4HA 0000000180015110 f   LIBCMT:dll_dllmain.obj
 0001:00014127       ?fin$0@?0??dllmain_crt_process_detach@@YAH_N@Z@4HA 0000000180015127 f   LIBCMT:dll_dllmain.obj
 0001:00014143       ?filt$0@?0??dllmain_dispatch@@YAHQEAUHINSTANCE__@@KQEAX@Z@4HA 0000000180015143 f   LIBCMT:dll_dllmain.obj
 0001:00014179       __scrt_is_nonwritable_in_current_image$filt$0 0000000180015179 f   LIBCMT:utility.obj
 0001:00014191       __DestructExceptionObject$filt$0 0000000180015191 f   libvcruntime:ehhelpers.obj
 0001:000141a9       _query_new_handler$fin$0   00000001800151a9 f   libucrt:new_handler.obj
 0001:000141bf       ?fin$0@?0???$?RV<lambda_450d765d439847d4c735a33c368b5fc0>@@AEAV<lambda_44731a7d0e6d81c3e6aa82d741081786>@@V<lambda_601a2a7da3b7a96e9554ac7215c4b07c>@@@?$__crt_seh_guarded_call@P6AXH@Z@@QEAAP6AXH@Z$$QEAV<lambda_450d765d439847d4c735a33c368b5fc0>@@AEAV<lambda_44731a7d0e6d81c3e6aa82d741081786>@@$$QEAV<lambda_601a2a7da3b7a96e9554ac7215c4b07c>@@@Z@4HA 00000001800151bf f   libucrt:signal.obj
 0001:000141bf       ?fin$0@?0???$?RV<lambda_efdfa57d1f175319df784efa44bb7b81>@@AEAV<lambda_5f0a4c1567f8adc6734073e5d1e1b35c>@@V<lambda_2e8a7d3640ea6ccb4c2413664c2db6fd>@@@?$__crt_seh_guarded_call@X@@QEAAX$$QEAV<lambda_efdfa57d1f175319df784efa44bb7b81>@@AEAV<lambda_5f0a4c1567f8adc6734073e5d1e1b35c>@@$$QEAV<lambda_2e8a7d3640ea6ccb4c2413664c2db6fd>@@@Z@4HA 00000001800151bf f   libucrt:mbctype.obj
 0001:000141bf       ?fin$0@?0???$?RV<lambda_7777bce6b2f8c936911f934f8298dc43>@@AEAV<lambda_f03950bc5685219e0bcd2087efbe011e>@@V<lambda_3883c3dff614d5e0c5f61bb1ac94921c>@@@?$__crt_seh_guarded_call@H@@QEAAH$$QEAV<lambda_7777bce6b2f8c936911f934f8298dc43>@@AEAV<lambda_f03950bc5685219e0bcd2087efbe011e>@@$$QEAV<lambda_3883c3dff614d5e0c5f61bb1ac94921c>@@@Z@4HA 00000001800151bf f   libucrt:onexit.obj
 0001:000141bf       ?fin$0@?0???$?RV<lambda_f2e299630e499de9f9a165e60fcd3db5>@@AEAV<lambda_2ae9d31cdba2644fcbeaf08da7c24588>@@V<lambda_40d01ff24d0e7b3814fdbdcee8eab3c7>@@@?$__crt_seh_guarded_call@X@@QEAAX$$QEAV<lambda_f2e299630e499de9f9a165e60fcd3db5>@@AEAV<lambda_2ae9d31cdba2644fcbeaf08da7c24588>@@$$QEAV<lambda_40d01ff24d0e7b3814fdbdcee8eab3c7>@@@Z@4HA 00000001800151bf f   libucrt:per_thread_data.obj
 0001:000141bf       ?fin$0@?0???$?RV<lambda_aa87e3671a710a21b5dc78c0bdf72e11>@@AEAV<lambda_92619d2358a28f41a33ba319515a20b9>@@V<lambda_6992ecaafeb10aed2b74cb1fae11a551>@@@?$__crt_seh_guarded_call@X@@QEAAX$$QEAV<lambda_aa87e3671a710a21b5dc78c0bdf72e11>@@AEAV<lambda_92619d2358a28f41a33ba319515a20b9>@@$$QEAV<lambda_6992ecaafeb10aed2b74cb1fae11a551>@@@Z@4HA 00000001800151bf f   libucrt:per_thread_data.obj
 0001:000141bf       ?fin$0@?0???$?RV<lambda_2d41944a1d46af3157314b8a01080d33>@@AEAV<lambda_8f455de75cd7d7f24b4096f044d8b9e6>@@V<lambda_aa500f224e6afead328df44964fe2772>@@@?$__crt_seh_guarded_call@X@@QEAAX$$QEAV<lambda_2d41944a1d46af3157314b8a01080d33>@@AEAV<lambda_8f455de75cd7d7f24b4096f044d8b9e6>@@$$QEAV<lambda_aa500f224e6afead328df44964fe2772>@@@Z@4HA 00000001800151bf f   libucrt:per_thread_data.obj
 0001:000141bf       ?fin$0@?0???$?RV<lambda_0ae27a3a962d80f24befdcbee591983d>@@AEAV<lambda_8d0ee55de4b1038c4002e0adecdf1839>@@V<lambda_dc504788e8f1664fe9b84e20bfb512f2>@@@?$__crt_seh_guarded_call@X@@QEAAX$$QEAV<lambda_0ae27a3a962d80f24befdcbee591983d>@@AEAV<lambda_8d0ee55de4b1038c4002e0adecdf1839>@@$$QEAV<lambda_dc504788e8f1664fe9b84e20bfb512f2>@@@Z@4HA 00000001800151bf f   libucrt:per_thread_data.obj
 0001:000141bf       ?fin$0@?0???$?RV<lambda_d80eeec6fff315bfe5c115232f3240e3>@@AEAV<lambda_6e4b09c48022b2350581041d5f6b0c4c>@@V<lambda_2358e3775559c9db80273638284d5e45>@@@?$__crt_seh_guarded_call@X@@QEAAX$$QEAV<lambda_d80eeec6fff315bfe5c115232f3240e3>@@AEAV<lambda_6e4b09c48022b2350581041d5f6b0c4c>@@$$QEAV<lambda_2358e3775559c9db80273638284d5e45>@@@Z@4HA 00000001800151bf f   libucrt:exit.obj
 0001:000141d9       ?filt$0@?0???R<lambda_6e4b09c48022b2350581041d5f6b0c4c>@@QEBA@XZ@4HA 00000001800151d9 f   libucrt:exit.obj
 0001:000141f4       ?fin$0@?0???$?RV<lambda_842d9ff0dc9ef11c61343bbaebe7f885>@@AEAV<lambda_c5860995281e5c4ce005b3de8f5874ee>@@V<lambda_d90129c13df834fdcbf8d2b88dafcf2d>@@@?$__crt_seh_guarded_call@X@@QEAAX$$QEAV<lambda_842d9ff0dc9ef11c61343bbaebe7f885>@@AEAV<lambda_c5860995281e5c4ce005b3de8f5874ee>@@$$QEAV<lambda_d90129c13df834fdcbf8d2b88dafcf2d>@@@Z@4HA 00000001800151f4 f   libucrt:fflush.obj
 0001:000141f4       ?fin$0@?0???$?RV<lambda_84ec643ea9557e2f7dc01bb0e9624395>@@AEAV<lambda_ca71763b3c0644891230e4f79ea54fa6>@@V<lambda_439a761618c59b0600e24586724d733b>@@@?$__crt_seh_guarded_call@H@@QEAAH$$QEAV<lambda_84ec643ea9557e2f7dc01bb0e9624395>@@AEAV<lambda_ca71763b3c0644891230e4f79ea54fa6>@@$$QEAV<lambda_439a761618c59b0600e24586724d733b>@@@Z@4HA 00000001800151f4 f   libucrt:setvbuf.obj
 0001:000141f4       ?fin$0@?0???$?RV<lambda_c376a267cfb53b6959b3b692ec76b120>@@AEAV<lambda_9a32fed5bf61b6b509b2d3f6003082a1>@@V<lambda_572fbb9fa0ab338edf41edfd4b5fcc8d>@@@?$__crt_seh_guarded_call@H@@QEAAH$$QEAV<lambda_c376a267cfb53b6959b3b692ec76b120>@@AEAV<lambda_9a32fed5bf61b6b509b2d3f6003082a1>@@$$QEAV<lambda_572fbb9fa0ab338edf41edfd4b5fcc8d>@@@Z@4HA 00000001800151f4 f   libucrt:fflush.obj
 0001:000141f4       ?fin$0@?0???$?RV<lambda_0d412022a4b28cc8a401ea49574e8ae6>@@AEAV<lambda_a775ed57af18ba8e4d5dc780aa9068fe>@@V<lambda_975a71a6baa488a08f4e15f6b0339b9e>@@@?$__crt_seh_guarded_call@H@@QEAAH$$QEAV<lambda_0d412022a4b28cc8a401ea49574e8ae6>@@AEAV<lambda_a775ed57af18ba8e4d5dc780aa9068fe>@@$$QEAV<lambda_975a71a6baa488a08f4e15f6b0339b9e>@@@Z@4HA 00000001800151f4 f   libucrt:output.obj
 0001:0001420f       ?fin$0@?0???$?RV<lambda_886d6c58226a84441f68b9f2b8217b83>@@AEAV<lambda_ab61a845afdef5b7c387490eaf3616ee>@@V<lambda_f7f22ab5edc0698d5f6905b0d3f44752>@@@?$__crt_seh_guarded_call@X@@QEAAX$$QEAV<lambda_886d6c58226a84441f68b9f2b8217b83>@@AEAV<lambda_ab61a845afdef5b7c387490eaf3616ee>@@$$QEAV<lambda_f7f22ab5edc0698d5f6905b0d3f44752>@@@Z@4HA 000000018001520f f   libucrt:fflush.obj
 0001:0001422c       raise$fin$0                000000018001522c f   libucrt:signal.obj
 0001:0001424d       ?fin$0@?0???$?RV<lambda_410d79af7f07d98d83a3f525b3859a53>@@AEAV<lambda_3e16ef9562a7dcce91392c22ab16ea36>@@V<lambda_38119f0e861e05405d8a144b9b982f0a>@@@?$__crt_seh_guarded_call@X@@QEAAX$$QEAV<lambda_410d79af7f07d98d83a3f525b3859a53>@@AEAV<lambda_3e16ef9562a7dcce91392c22ab16ea36>@@$$QEAV<lambda_38119f0e861e05405d8a144b9b982f0a>@@@Z@4HA 000000018001524d f   libucrt:wsetlocale.obj
 0001:00014267       ?fin$0@?0??update_thread_multibyte_data_internal@@YAPEAU__crt_multibyte_data@@QEAU__acrt_ptd@@QEAPEAU1@@Z@4HA 0000000180015267 f   libucrt:mbctype.obj
 0001:00014280       __acrt_initialize_lowio$fin$0 0000000180015280 f   libucrt:ioinit.obj
 0001:00014280       __acrt_lowio_ensure_fh_exists$fin$0 0000000180015280 f   libucrt:osfinfo.obj
 0001:00014299       _fcloseall$fin$0           0000000180015299 f   libucrt:closeall.obj
 0001:000142b2       ?fin$0@?0???$?RV<lambda_a37b2b86f63e897a80ea819b0eb08c01>@@AEAV<lambda_38ce7e780aa69e748d6df282ebc68efe>@@V<lambda_99fb1378e971ab6e7edea83e3a7a83a2>@@@?$__crt_seh_guarded_call@H@@QEAAH$$QEAV<lambda_a37b2b86f63e897a80ea819b0eb08c01>@@AEAV<lambda_38ce7e780aa69e748d6df282ebc68efe>@@$$QEAV<lambda_99fb1378e971ab6e7edea83e3a7a83a2>@@@Z@4HA 00000001800152b2 f   libucrt:commit.obj
 0001:000142b2       ?fin$0@?0???$?RV<lambda_751a882b2c74d4b022dec766aa51a29a>@@AEAV<lambda_628dfdc04ba53c8bfc02c9951375f3f5>@@V<lambda_f6c7be5f7998530c34de24c7437d6b54>@@@?$__crt_seh_guarded_call@H@@QEAAH$$QEAV<lambda_751a882b2c74d4b022dec766aa51a29a>@@AEAV<lambda_628dfdc04ba53c8bfc02c9951375f3f5>@@$$QEAV<lambda_f6c7be5f7998530c34de24c7437d6b54>@@@Z@4HA 00000001800152b2 f   libucrt:close.obj
 0001:000142cc       ?fin$0@?0???$common_lseek@_J@@YA_JH_JH@Z@4HA 00000001800152cc f   libucrt:lseek.obj
 0001:000142cc       _write$fin$0               00000001800152cc f   libucrt:write.obj
 0001:000142e3       __acrt_update_thread_locale_data$fin$0 00000001800152e3 f   libucrt:locale_refcounting.obj
 0001:000142fc       fclose$fin$0               00000001800152fc f   libucrt:fclose.obj
 0001:00014314       _ctrlfp$filt$0             0000000180015314 f   libucrt:fpctrl.obj
 0001:00014340       _IsNonwritableInCurrentImage$filt$0 0000000180015340 f   LIBCMT:pesect.obj
 0002:000002f8       GS_ExceptionPointers       00000001800162f8     LIBCMT:gs_report.obj
 0002:000003a0       ?ExceptionTemplate@?1??_CxxThrowException@@9@4UEHExceptionRecord@@B 00000001800163a0     libvcruntime:throw.obj
 0002:000003f0       ?tokenTable@@3QBQEBDB      00000001800163f0     libvcruntime:undname.obj
 0002:00000470       ?nameTable@@3QBQEBDB       0000000180016470     libvcruntime:undname.obj
 0002:00000700       ?rttiTable@@3QBQEBDB       0000000180016700     libvcruntime:undname.obj
 0002:00000db8       ?module_names@?A0x14c33c87@@3QBQEB_WB 0000000180016db8     libvcruntime:winapi_downlevel.obj
 0002:00000e88       ?candidate_modules@?1??try_get_FlsAlloc@@YAP6AKP6AXPEAX@Z@ZXZ@4QBW4module_id@?A0x14c33c87@@B 0000000180016e88     libvcruntime:winapi_downlevel.obj
 0002:00000ea0       ?candidate_modules@?1??try_get_FlsFree@@YAP6AHK@ZXZ@4QBW4module_id@?A0x14c33c87@@B 0000000180016ea0     libvcruntime:winapi_downlevel.obj
 0002:00000eb0       ?candidate_modules@?1??try_get_FlsGetValue@@YAP6APEAXK@ZXZ@4QBW4module_id@?A0x14c33c87@@B 0000000180016eb0     libvcruntime:winapi_downlevel.obj
 0002:00000ec8       ?candidate_modules@?1??try_get_FlsSetValue@@YAP6AHKPEAX@ZXZ@4QBW4module_id@?A0x14c33c87@@B 0000000180016ec8     libvcruntime:winapi_downlevel.obj
 0002:00000ee0       ?candidate_modules@?1??try_get_InitializeCriticalSectionEx@@YAP6AHPEAU_RTL_CRITICAL_SECTION@@KK@ZXZ@4QBW4module_id@?A0x14c33c87@@B 0000000180016ee0     libvcruntime:winapi_downlevel.obj
 0002:000012f0       __acrt_initializers        00000001800172f0     libucrt:initialization.obj
 0002:00001470       ?errtable@@3QBUerrentry@?A0x31fdb9ec@@B 0000000180017470     libucrt:errno.obj
 0002:00001c60       ?_mb_locale_names@@3QBQEB_WB 0000000180017c60     libucrt:mbctype.obj
 0002:00001cc0       ?module_names@?A0x391cf84c@@3QBQEB_WB 0000000180017cc0     libucrt:winapi_thunks.obj
 0002:00002268       ?candidate_modules@?1??try_get_AreFileApisANSI@@YAP6AHXZXZ@4QBW4module_id@?A0x391cf84c@@B 0000000180018268     libucrt:winapi_thunks.obj
 0002:00002280       ?candidate_modules@?1??try_get_FlsAlloc@@YAP6AKP6AXPEAX@Z@ZXZ@4QBW4module_id@?A0x391cf84c@@B 0000000180018280     libucrt:winapi_thunks.obj
 0002:00002298       ?candidate_modules@?1??try_get_FlsFree@@YAP6AHK@ZXZ@4QBW4module_id@?A0x391cf84c@@B 0000000180018298     libucrt:winapi_thunks.obj
 0002:000022a8       ?candidate_modules@?1??try_get_FlsGetValue@@YAP6APEAXK@ZXZ@4QBW4module_id@?A0x391cf84c@@B 00000001800182a8     libucrt:winapi_thunks.obj
 0002:000022c0       ?candidate_modules@?1??try_get_FlsSetValue@@YAP6AHKPEAX@ZXZ@4QBW4module_id@?A0x391cf84c@@B 00000001800182c0     libucrt:winapi_thunks.obj
 0002:000022d8       ?candidate_modules@?1??try_get_GetActiveWindow@@YAP6APEAUHWND__@@XZXZ@4QBW4module_id@?A0x391cf84c@@B 00000001800182d8     libucrt:winapi_thunks.obj
 0002:000022f0       ?candidate_modules@?1??try_get_GetLastActivePopup@@YAP6APEAUHWND__@@PEAU2@@ZXZ@4QBW4module_id@?A0x391cf84c@@B 00000001800182f0     libucrt:winapi_thunks.obj
 0002:00002310       ?candidate_modules@?1??try_get_GetProcessWindowStation@@YAP6APEAUHWINSTA__@@XZXZ@4QBW4module_id@?A0x391cf84c@@B 0000000180018310     libucrt:winapi_thunks.obj
 0002:00002330       ?candidate_modules@?1??try_get_GetUserObjectInformationW@@YAP6AHPEAXH0KPEAK@ZXZ@4QBW4module_id@?A0x391cf84c@@B 0000000180018330     libucrt:winapi_thunks.obj
 0002:00002358       ?candidate_modules@?1??try_get_InitializeCriticalSectionEx@@YAP6AHPEAU_RTL_CRITICAL_SECTION@@KK@ZXZ@4QBW4module_id@?A0x391cf84c@@B 0000000180018358     libucrt:winapi_thunks.obj
 0002:00002380       ?candidate_modules@?1??try_get_LCMapStringEx@@YAP6AHPEB_WK0HPEA_WHPEAU_nlsversioninfo@@PEAX_J@ZXZ@4QBW4module_id@?A0x391cf84c@@B 0000000180018380     libucrt:winapi_thunks.obj
 0002:00002398       ?candidate_modules@?1??try_get_LocaleNameToLCID@@YAP6AKPEB_WK@ZXZ@4QBW4module_id@?A0x391cf84c@@B 0000000180018398     libucrt:winapi_thunks.obj
 0002:000023b8       ?candidate_modules@?1??try_get_MessageBoxA@@YAP6AHPEAUHWND__@@PEBD1I@ZXZ@4QBW4module_id@?A0x391cf84c@@B 00000001800183b8     libucrt:winapi_thunks.obj
 0002:000023d0       ?candidate_modules@?1??try_get_MessageBoxW@@YAP6AHPEAUHWND__@@PEB_W1I@ZXZ@4QBW4module_id@?A0x391cf84c@@B 00000001800183d0     libucrt:winapi_thunks.obj
 0002:000023e4       ?candidate_modules@?1??try_get_AppPolicyGetProcessTerminationMethod@@YAP6AJPEAXPEAW4AppPolicyProcessTerminationMethod@@@ZXZ@4QBW4module_id@?A0x391cf84c@@B 00000001800183e4     libucrt:winapi_thunks.obj
 0002:00002410       ?candidate_modules@?1??try_get_AppPolicyGetShowDeveloperDiagnostic@@YAP6AJPEAXPEAW4AppPolicyShowDeveloperDiagnostic@@@ZXZ@4QBW4module_id@?A0x391cf84c@@B 0000000180018410     libucrt:winapi_thunks.obj
 0002:0000243c       ?candidate_modules@?1??try_get_AppPolicyGetWindowingModel@@YAP6AJPEAXPEAW4AppPolicyWindowingModel@@@ZXZ@4QBW4module_id@?A0x391cf84c@@B 000000018001843c     libucrt:winapi_thunks.obj
 0002:00002cd0       ?LcidToLocaleNameTable@?A0x881e4c05@@3QBULcidToLocaleName@1@B 0000000180018cd0     libucrt:lcidtoname_downlevel.obj
 0002:00004730       ?LocaleNameToIndexTable@?A0x881e4c05@@3QBULocaleNameIndex@1@B 000000018001a730     libucrt:lcidtoname_downlevel.obj
 0002:000069d0       __real_ninf                000000018001c9d0     libucrt:log10.obj
 0002:000069e0       __real_inf                 000000018001c9e0     libucrt:log10.obj
 0002:000069f0       __real_neg_qnan            000000018001c9f0     libucrt:log10.obj
 0002:00006a00       __real_qnanbit             000000018001ca00     libucrt:log10.obj
 0002:00006a10       __int_1023                 000000018001ca10     libucrt:log10.obj
 0002:00006a20       __mask_001                 000000018001ca20     libucrt:log10.obj
 0002:00006a30       __mask_mant                000000018001ca30     libucrt:log10.obj
 0002:00006a40       __mask_mant_top8           000000018001ca40     libucrt:log10.obj
 0002:00006a50       __mask_mant9               000000018001ca50     libucrt:log10.obj
 0002:00006a60       __real_log10_e             000000018001ca60     libucrt:log10.obj
 0002:00006a70       __real_log10_e_lead        000000018001ca70     libucrt:log10.obj
 0002:00006a80       __real_log10_e_tail        000000018001ca80     libucrt:log10.obj
 0002:00006a90       __real_log10_2_lead        000000018001ca90     libucrt:log10.obj
 0002:00006aa0       __real_log10_2_tail        000000018001caa0     libucrt:log10.obj
 0002:00006ab0       __real_two                 000000018001cab0     libucrt:log10.obj
 0002:00006ac0       __real_one                 000000018001cac0     libucrt:log10.obj
 0002:00006ad0       __real_half                000000018001cad0     libucrt:log10.obj
 0002:00006ae0       __mask_100                 000000018001cae0     libucrt:log10.obj
 0002:00006af0       __real_1_over_512          000000018001caf0     libucrt:log10.obj
 0002:00006b00       __real_1_over_2            000000018001cb00     libucrt:log10.obj
 0002:00006b10       __real_1_over_3            000000018001cb10     libucrt:log10.obj
 0002:00006b20       __real_1_over_4            000000018001cb20     libucrt:log10.obj
 0002:00006b30       __real_1_over_5            000000018001cb30     libucrt:log10.obj
 0002:00006b40       __real_1_over_6            000000018001cb40     libucrt:log10.obj
 0002:00006b50       __real_neg_1023            000000018001cb50     libucrt:log10.obj
 0002:00006b60       __mask_2045                000000018001cb60     libucrt:log10.obj
 0002:00006b70       __real_threshold           000000018001cb70     libucrt:log10.obj
 0002:00006b80       __real_near_one_lt         000000018001cb80     libucrt:log10.obj
 0002:00006b90       __real_near_one_gt         000000018001cb90     libucrt:log10.obj
 0002:00006ba0       __real_min_norm            000000018001cba0     libucrt:log10.obj
 0002:00006bb0       __real_notsign             000000018001cbb0     libucrt:log10.obj
 0002:00006bc0       __real_ca1                 000000018001cbc0     libucrt:log10.obj
 0002:00006bd0       __real_ca2                 000000018001cbd0     libucrt:log10.obj
 0002:00006be0       __real_ca3                 000000018001cbe0     libucrt:log10.obj
 0002:00006bf0       __real_ca4                 000000018001cbf0     libucrt:log10.obj
 0002:00006c00       __mask_lower               000000018001cc00     libucrt:log10.obj
 0002:00006c10       __flag_x_zero              000000018001cc10     libucrt:log10.obj
 0002:00006c14       __flag_x_neg               000000018001cc14     libucrt:log10.obj
 0002:00006c18       __flag_x_nan               000000018001cc18     libucrt:log10.obj
 0002:00008470       __real@433fffffffffffff    000000018001e470     libucrt:fpsr.obj
 0002:00008478       __real@c33fffffffffffff    000000018001e478     libucrt:fpsr.obj
 0002:00008ec8       $unwind$__vcrt_uninitialize_locks 000000018001eec8     libvcruntime:locks.obj
 0002:00008ec8       $unwind$__acrt_freeptd     000000018001eec8     libucrt:per_thread_data.obj
 0002:00008ec8       $unwind$__acrt_getptd_head 000000018001eec8     libucrt:per_thread_data.obj
 0002:00008ec8       $unwind$__raise_securityfailure 000000018001eec8     LIBCMT:gs_report.obj
 0002:00008ec8       $unwind$__acrt_update_locale_info 000000018001eec8     libucrt:locale_update.obj
 0002:00008ec8       $unwind$__acrt_update_multibyte_info 000000018001eec8     libucrt:locale_update.obj
 0002:00008ec8       $unwind$_clrfp             000000018001eec8     libucrt:fpctrl.obj
 0002:00008ec8       $unwind$__vcrt_initialize_locks 000000018001eec8     libvcruntime:locks.obj
 0002:00008ec8       $unwind$?DloadAcquireSectionWriteAccess@@YAXXZ 000000018001eec8     DelayImp:delayhlp.obj
 0002:00008ec8       $unwind$__vcrt_FlsAlloc    000000018001eec8     libvcruntime:winapi_downlevel.obj
 0002:00008ec8       $unwind$__vcrt_FlsFree     000000018001eec8     libvcruntime:winapi_downlevel.obj
 0002:00008ec8       $unwind$??0exception@std@@QEAA@AEBV01@@Z 000000018001eec8     LIBCMT:throw_bad_alloc.obj
 0002:00008ec8       $unwind$__acrt_initialize_locks 000000018001eec8     libucrt:locks.obj
 0002:00008ec8       $unwind$??0bad_alloc@std@@QEAA@AEBV01@@Z 000000018001eec8     LIBCMT:throw_bad_alloc.obj
 0002:00008ec8       $unwind$__acrt_uninitialize_winapi_thunks 000000018001eec8     libucrt:winapi_thunks.obj
 0002:00008ec8       $unwind$__acrt_FlsAlloc    000000018001eec8     libucrt:winapi_thunks.obj
 0002:00008ec8       $unwind$__acrt_FlsFree     000000018001eec8     libucrt:winapi_thunks.obj
 0002:00008ec8       $unwind$?internal_isupper_l@@YA_NHQEAU__crt_locale_pointers@@@Z 000000018001eec8     libucrt:tolower_toupper.obj
 0002:00008ec8       $unwind$__acrt_FlsGetValue 000000018001eec8     libucrt:winapi_thunks.obj
 0002:00008ec8       $unwind$__acrt_AppPolicyGetProcessTerminationMethodInternal 000000018001eec8     libucrt:winapi_thunks.obj
 0002:00008ec8       $unwind$__acrt_AppPolicyGetShowDeveloperDiagnosticInternal 000000018001eec8     libucrt:winapi_thunks.obj
 0002:00008ec8       $unwind$__acrt_AppPolicyGetWindowingModelInternal 000000018001eec8     libucrt:winapi_thunks.obj
 0002:00008ec8       $unwind$_calloc_base       000000018001eec8     libucrt:calloc_base.obj
 0002:00008ec8       $unwind$_fflush_nolock     000000018001eec8     libucrt:fflush.obj
 0002:00008ec8       $unwind$__acrt_uninitialize_stdio 000000018001eec8     libucrt:_file.obj
 0002:00008ec8       $unwind$wcscpy_s           000000018001eec8     libucrt:wcscpy_s.obj
 0002:00008ec8       $unwind$wcscat_s           000000018001eec8     libucrt:wcscat_s.obj
 0002:00008ec8       $unwind$__vcrt_FlsGetValue 000000018001eec8     libvcruntime:winapi_downlevel.obj
 0002:00008ec8       $unwind$?stream_is_at_end_of_file_nolock@@YA_NV__crt_stdio_stream@@@Z 000000018001eec8     libucrt:_flsbuf.obj
 0002:00008ec8       $unwind$_clearfp           000000018001eec8     libucrt:ieee.obj
 0002:00008ec8       $unwind$??2@YAPEAX_K@Z     000000018001eec8     LIBCMT:new_scalar.obj
 0002:00008ec8       $unwind$strcpy_s           000000018001eec8     libucrt:strcpy_s.obj
 0002:00008ec8       $unwind$uninitialize_allocated_memory 000000018001eec8     libucrt:initialization.obj
 0002:00008ec8       $unwind$_callnewh          000000018001eec8     libucrt:new_handler.obj
 0002:00008ec8       $unwind$?WeakCallback@ObjectWrap@node@@CAXAEBV?$WeakCallbackInfo@VObjectWrap@node@@@v8@@@Z 000000018001eec8     bufferutil.obj
 0002:00008ec8       $unwind$?Unref@ObjectWrap@node@@MEAAXXZ 000000018001eec8     bufferutil.obj
 0002:00008ec8       $unwind$?Ref@ObjectWrap@node@@MEAAXXZ 000000018001eec8     bufferutil.obj
 0002:00008ec8       $unwind$?try_cor_exit_process@@YAXI@Z 000000018001eec8     libucrt:exit.obj
 0002:00008ec8       $unwind$?exit_or_terminate_process@@YAXI@Z 000000018001eec8     libucrt:exit.obj
 0002:00008ec8       $unwind$__acrt_get_windowing_model_policy 000000018001eec8     libucrt:win_policies.obj
 0002:00008ec8       $unwind$__acrt_allocate_buffer_for_argv 000000018001eec8     libucrt:argv_parsing.obj
 0002:00008ec8       $unwind$fegetenv           000000018001eec8     libucrt:fegetenv.obj
 0002:00008ec8       $unwind$__std_type_info_destroy_list 000000018001eec8     libvcruntime:std_type_info.obj
 0002:00008ec8       $unwind$fesetenv           000000018001eec8     libucrt:fesetenv.obj
 0002:00008ec8       $unwind$feholdexcept       000000018001eec8     libucrt:feholdexcept.obj
 0002:00008ec8       $unwind$__std_exception_destroy 000000018001eec8     libvcruntime:std_exception.obj
 0002:00008ec8       $unwind$_set_statfp        000000018001eec8     libucrt:fpctrl.obj
 0002:00008ec8       $unwind$__vcrt_freeptd     000000018001eec8     libvcruntime:per_thread_data.obj
 0002:00008ec8       $unwind$??0bad_array_new_length@std@@QEAA@AEBV01@@Z 000000018001eec8     LIBCMT:throw_bad_alloc.obj
 0002:00008ec8       $unwind$__acrt_uninitialize_locks 000000018001eec8     libucrt:locks.obj
 0002:00008ec8       $unwind$__scrt_release_startup_lock 000000018001eec8     LIBCMT:utility.obj
 0002:00008ec8       $unwind$__acrt_get_developer_information_policy 000000018001eec8     libucrt:win_policies.obj
 0002:00008ec8       $unwind$__acrt_stdio_free_buffer_nolock 000000018001eec8     libucrt:_freebuf.obj
 0002:00008ec8       $unwind$__scrt_initialize_crt 000000018001eec8     LIBCMT:utility.obj
 0002:00008ec8       $unwind$__acrt_get_process_end_policy 000000018001eec8     libucrt:win_policies.obj
 0002:00008ec8       $unwind$__scrt_uninitialize_crt 000000018001eec8     LIBCMT:utility.obj
 0002:00008ec8       $unwind$__acrt_get_parent_window 000000018001eec8     libucrt:winapi_thunks.obj
 0002:00008ec8       $unwind$_malloc_base       000000018001eec8     libucrt:malloc_base.obj
 0002:00008ec8       $unwind$initialize_pointers 000000018001eec8     libucrt:initialization.obj
 0002:00008ec8       $unwind$??_Gtype_info@@UEAAPEAXI@Z 000000018001eec8     LIBCMT:std_type_info_static.obj
 0002:00008ed0       $unwind$_initterm_e        000000018001eed0     libucrt:initterm.obj
 0002:00008ed0       $unwind$__acrt_can_show_message_box 000000018001eed0     libucrt:winapi_thunks.obj
 0002:00008ed0       $unwind$?DloadGetSRWLockFunctionPointers@@YAEXZ 000000018001eed0     DelayImp:delayhlp.obj
 0002:00008ed0       $unwind$_RTC_Terminate     000000018001eed0     LIBCMT:initsect.obj
 0002:00008ed0       $unwind$_realloc_base      000000018001eed0     libucrt:realloc_base.obj
 0002:00008ed0       $unwind$??_GObjectWrap@node@@UEAAPEAXI@Z 000000018001eed0     bufferutil.obj
 0002:00008ed0       $unwind$_RTC_Initialize    000000018001eed0     LIBCMT:initsect.obj
 0002:00008ed0       $unwind$?force_decimal_point@__crt_stdio_output@@YAXPEADQEAU__crt_locale_pointers@@@Z 000000018001eed0     libucrt:output.obj
 0002:00008ed0       $unwind$?replace_current_thread_locale_nolock@@YAXQEAU__acrt_ptd@@QEAU__crt_locale_data@@@Z 000000018001eed0     libucrt:per_thread_data.obj
 0002:00008ed0       $unwind$__acrt_uninitialize_lowio 000000018001eed0     libucrt:ioinit.obj
 0002:00008ed0       $unwind$__acrt_LocaleNameToLCID 000000018001eed0     libucrt:winapi_thunks.obj
 0002:00008ed0       $unwind$__acrt_execute_uninitializers 000000018001eed0     libucrt:shared_initialization.obj
 0002:00008ed0       $unwind$??_Gbad_array_new_length@std@@UEAAPEAXI@Z 000000018001eed0     LIBCMT:throw_bad_alloc.obj
 0002:00008ed0       $unwind$__acrt_stdio_begin_temporary_buffering_nolock 000000018001eed0     libucrt:_sftbuf.obj
 0002:00008ed0       $unwind$_close_nolock      000000018001eed0     libucrt:close.obj
 0002:00008ed0       $unwind$??_Gbad_alloc@std@@UEAAPEAXI@Z 000000018001eed0     LIBCMT:throw_bad_alloc.obj
 0002:00008ed0       $unwind$??_GBufferUtil@@UEAAPEAXI@Z 000000018001eed0     bufferutil.obj
 0002:00008ed0       $unwind$strncpy_s          000000018001eed0     libucrt:strncpy_s.obj
 0002:00008ed0       $unwind$??_Gexception@std@@UEAAPEAXI@Z 000000018001eed0     LIBCMT:throw_bad_alloc.obj
 0002:00008ed0       $unwind$__acrt_fp_strflt_to_string 000000018001eed0     libucrt:_fptostr.obj
 0002:00008ed0       $unwind$__acrt_FlsSetValue 000000018001eed0     libucrt:winapi_thunks.obj
 0002:00008ed0       $unwind$_updatetlocinfoEx_nolock 000000018001eed0     libucrt:locale_refcounting.obj
 0002:00008ed0       $unwind$__acrt_errno_map_os_error 000000018001eed0     libucrt:errno.obj
 0002:00008ed0       $unwind$__vcrt_FlsSetValue 000000018001eed0     libvcruntime:winapi_downlevel.obj
 0002:00008ed0       $unwind$_fclose_nolock     000000018001eed0     libucrt:fclose.obj
 0002:00008ed0       $unwind$wcsncat_s          000000018001eed0     libucrt:wcsncat_s.obj
 0002:00008ed0       $unwind$??$common_initialize_environment_nolock@D@@YAHXZ 000000018001eed0     libucrt:environment_initialization.obj
 0002:00008ed0       $unwind$__acrt_stdio_allocate_buffer_nolock 000000018001eed0     libucrt:_getbuf.obj
 0002:00008edc       $unwind$?FunctionCallbackWrapper@imp@Nan@@YAXAEBV?$FunctionCallbackInfo@VValue@v8@@@v8@@@Z 000000018001eedc     bufferutil.obj
 0002:00008ef0       $unwind$?Initialize@BufferUtil@@SAXV?$Local@VObject@v8@@@v8@@@Z 000000018001eef0     bufferutil.obj
 0002:00008f04       $unwind$?New@BufferUtil@@KAXAEBV?$FunctionCallbackInfo@VValue@v8@@@Nan@@@Z 000000018001ef04     bufferutil.obj
 0002:00008f1c       $unwind$?Merge@BufferUtil@@KAXAEBV?$FunctionCallbackInfo@VValue@v8@@@Nan@@@Z 000000018001ef1c     bufferutil.obj
 0002:00008f34       $unwind$?Unmask@BufferUtil@@KAXAEBV?$FunctionCallbackInfo@VValue@v8@@@Nan@@@Z 000000018001ef34     bufferutil.obj
 0002:00008f48       $unwind$?Mask@BufferUtil@@KAXAEBV?$FunctionCallbackInfo@VValue@v8@@@Nan@@@Z 000000018001ef48     bufferutil.obj
 0002:00008f60       $unwind$__dcrt_lowio_ensure_console_output_initialized 000000018001ef60     libucrt:initcon.obj
 0002:00008f60       $unwind$?getSystemCP@@YAHH@Z 000000018001ef60     libucrt:mbctype.obj
 0002:00008f60       $unwind$_isleadbyte_l      000000018001ef60     libucrt:_wctype.obj
 0002:00008f60       $unwind$__scrt_initialize_onexit_tables 000000018001ef60     LIBCMT:utility.obj
 0002:00008f60       $unwind$?init@@YAXV?$Local@VObject@v8@@@v8@@@Z 000000018001ef60     bufferutil.obj
 0002:00008f68       $unwind$??$New@VFunctionTemplate@v8@@@Nan@@YA?AV?$Local@VFunctionTemplate@v8@@@v8@@P6AXAEBV?$FunctionCallbackInfo@VValue@v8@@@0@@ZV?$Local@VValue@v8@@@2@@Z 000000018001ef68     bufferutil.obj
 0002:00008f7c       $chain$0$??$New@VFunctionTemplate@v8@@@Nan@@YA?AV?$Local@VFunctionTemplate@v8@@@v8@@P6AXAEBV?$FunctionCallbackInfo@VValue@v8@@@0@@ZV?$Local@VValue@v8@@@2@@Z 000000018001ef7c     bufferutil.obj
 0002:00008f90       $chain$1$??$New@VFunctionTemplate@v8@@@Nan@@YA?AV?$Local@VFunctionTemplate@v8@@@v8@@P6AXAEBV?$FunctionCallbackInfo@VValue@v8@@@0@@ZV?$Local@VValue@v8@@@2@@Z 000000018001ef90     bufferutil.obj
 0002:00008fa4       $chain$2$??$New@VFunctionTemplate@v8@@@Nan@@YA?AV?$Local@VFunctionTemplate@v8@@@v8@@P6AXAEBV?$FunctionCallbackInfo@VValue@v8@@@0@@ZV?$Local@VValue@v8@@@2@@Z 000000018001efa4     bufferutil.obj
 0002:00008fb4       $chain$3$??$New@VFunctionTemplate@v8@@@Nan@@YA?AV?$Local@VFunctionTemplate@v8@@@v8@@P6AXAEBV?$FunctionCallbackInfo@VValue@v8@@@0@@ZV?$Local@VValue@v8@@@2@@Z 000000018001efb4     bufferutil.obj
 0002:00008fc4       $unwind$_set_errno_from_matherr 000000018001efc4     libucrt:fpexcept.obj
 0002:00008fc4       $unwind$__acrt_thread_detach 000000018001efc4     libucrt:initialization.obj
 0002:00008fc4       $unwind$?DloadReleaseSectionWriteAccess@@YAXXZ 000000018001efc4     DelayImp:delayhlp.obj
 0002:00008fc4       $unwind$?initialize_multibyte@@YAHXZ 000000018001efc4     libucrt:multibyte_initializer.obj
 0002:00008fc4       $unwind$?dllmain_crt_dispatch@@YAHQEAUHINSTANCE__@@KQEAX@Z 000000018001efc4     LIBCMT:dll_dllmain.obj
 0002:00008fc4       $unwind$__pctype_func      000000018001efc4     libucrt:ctype.obj
 0002:00008fc4       $unwind$_errno             000000018001efc4     libucrt:errno.obj
 0002:00008fc4       $unwind$__report_rangecheckfailure 000000018001efc4     LIBCMT:gs_report.obj
 0002:00008fc4       $unwind$__acrt_thread_attach 000000018001efc4     libucrt:initialization.obj
 0002:00008fc4       $unwind$tolower            000000018001efc4     libucrt:tolower_toupper.obj
 0002:00008fc4       $unwind$_invoke_watson     000000018001efc4     libucrt:invalid_parameter.obj
 0002:00008fc4       $unwind$abort              000000018001efc4     libucrt:abort.obj
 0002:00008fc4       $unwind$__acrt_uninitialize_critical 000000018001efc4     libucrt:initialization.obj
 0002:00008fc4       $unwind$__vcrt_freefls     000000018001efc4     libvcruntime:per_thread_data.obj
 0002:00008fc4       $unwind$__acrt_uninitialize 000000018001efc4     libucrt:initialization.obj
 0002:00008fc4       $unwind$initialize_c       000000018001efc4     libucrt:initialization.obj
 0002:00008fc4       $unwind$_fileno            000000018001efc4     libucrt:fileno.obj
 0002:00008fc4       $unwind$??$uninitialize_environment_internal@_W@@YAXAEAPEAPEA_W@Z 000000018001efc4     libucrt:environment_initialization.obj
 0002:00008fc4       $unwind$_stricmp           000000018001efc4     libucrt:stricmp.obj
 0002:00008fc4       $unwind$__acrt_initialize_ptd 000000018001efc4     libucrt:per_thread_data.obj
 0002:00008fc4       $unwind$??$uninitialize_environment_internal@D@@YAXAEAPEAPEAD@Z 000000018001efc4     libucrt:environment_initialization.obj
 0002:00008fc4       $unwind$__acrt_uninitialize_ptd 000000018001efc4     libucrt:per_thread_data.obj
 0002:00008fc4       $unwind$__vcrt_uninitialize_ptd 000000018001efc4     libvcruntime:per_thread_data.obj
 0002:00008fc4       $unwind$_set_error_mode    000000018001efc4     libucrt:set_error_mode.obj
 0002:00008fc4       $unwind$_get_osfhandle     000000018001efc4     libucrt:osfinfo.obj
 0002:00008fc4       $unwind$__scrt_initialize_default_local_stdio_options 000000018001efc4     LIBCMT:default_local_stdio_options.obj
 0002:00008fc4       $unwind$__vcrt_initialize_ptd 000000018001efc4     libvcruntime:per_thread_data.obj
 0002:00008fc4       $unwind$uninitialize_environment 000000018001efc4     libucrt:initialization.obj
 0002:00008fc4       $unwind$_isatty            000000018001efc4     libucrt:isatty.obj
 0002:00008fc4       $unwind$__dcrt_terminate_console_output 000000018001efc4     libucrt:initcon.obj
 0002:00008fc4       $unwind$uninitialize_allocated_io_buffers 000000018001efc4     libucrt:initialization.obj
 0002:00008fc4       $unwind$__scrt_acquire_startup_lock 000000018001efc4     LIBCMT:utility.obj
 0002:00008fc4       $unwind$_msize_base        000000018001efc4     libucrt:msize.obj
 0002:00008fc4       $unwind$?__c32rtomb_utf8@__crt_mbstring@@YA_KPEAD_UPEAU_Mbstatet@@@Z 000000018001efc4     libucrt:c32rtomb.obj
 0002:00008fc4       $unwind$?state_case_size@?$output_processor@_WV?$string_output_adapter@_W@__crt_stdio_output@@V?$standard_base@_WV?$string_output_adapter@_W@__crt_stdio_output@@@2@@__crt_stdio_output@@AEAA_NXZ 000000018001efc4     libucrt:output.obj
 0002:00008fc4       $unwind$__scrt_dllmain_before_initialize_c 000000018001efc4     LIBCMT:utility.obj
 0002:00008fc4       $unwind$__scrt_dllmain_after_initialize_c 000000018001efc4     LIBCMT:utility.obj
 0002:00008fc4       $unwind$__acrt_initialize_heap 000000018001efc4     libucrt:heap_handle.obj
 0002:00008fc4       $unwind$__GSHandlerCheck   000000018001efc4     LIBCMT:gshandler.obj
 0002:00008fc4       $unwind$__scrt_dllmain_uninitialize_c 000000018001efc4     LIBCMT:utility.obj
 0002:00008fc4       $unwind$__scrt_dllmain_uninitialize_critical 000000018001efc4     LIBCMT:utility.obj
 0002:00008fc4       $unwind$__scrt_dllmain_crt_thread_attach 000000018001efc4     LIBCMT:utility.obj
 0002:00008fc4       $unwind$__scrt_dllmain_crt_thread_detach 000000018001efc4     LIBCMT:utility.obj
 0002:00008fc4       $unwind$__dcrt_uninitialize_environments_nolock 000000018001efc4     libucrt:environment_initialization.obj
 0002:00008fc4       $unwind$__acrt_release_locale_ref 000000018001efc4     libucrt:locale_refcounting.obj
 0002:00008fc4       $unwind$__acrt_update_thread_multibyte_data 000000018001efc4     libucrt:mbctype.obj
 0002:00008fc4       $unwind$__acrt_initialize_multibyte 000000018001efc4     libucrt:mbctype.obj
 0002:00008fc4       $unwind$?load_exe_hook@@YAP6A_JXZIPEAUDelayLoadInfo@@@Z 000000018001efc4     win_delay_load_hook.obj
 0002:00008fc4       $unwind$__vcrt_thread_detach 000000018001efc4     libvcruntime:initialization.obj
 0002:00008fc4       $unwind$__acrt_AreFileApisANSI 000000018001efc4     libucrt:winapi_thunks.obj
 0002:00008fc4       $unwind$__acrt_initialize_command_line 000000018001efc4     libucrt:argv_data.obj
 0002:00008fc4       $unwind$__vcrt_thread_attach 000000018001efc4     libvcruntime:initialization.obj
 0002:00008fc4       $unwind$__vcrt_uninitialize_critical 000000018001efc4     libvcruntime:initialization.obj
 0002:00008fc4       $unwind$__vcrt_uninitialize 000000018001efc4     libvcruntime:initialization.obj
 0002:00008fc4       $unwind$__doserrno         000000018001efc4     libucrt:errno.obj
 0002:00008fc4       $unwind$__vcrt_initialize  000000018001efc4     libvcruntime:initialization.obj
 0002:00008fc4       $unwind$__acrt_DownlevelLocaleNameToLCID 000000018001efc4     libucrt:lcidtoname_downlevel.obj
 0002:00008fc4       $unwind$_statfp            000000018001efc4     libucrt:fpctrl.obj
 0002:00008fc4       $unwind$?state_case_size@?$output_processor@_WV?$stream_output_adapter@_W@__crt_stdio_output@@V?$standard_base@_WV?$stream_output_adapter@_W@__crt_stdio_output@@@2@@__crt_stdio_output@@AEAA_NXZ 000000018001efc4     libucrt:output.obj
 0002:00008fcc       xdata                      000000018001efcc     node:node.exe
 0002:00008fd8       $xdatasym                  000000018001efd8     LIBCMT:amdsecgs.obj
 0002:00008fdc       $unwind$?dllmain_crt_process_attach@@YAHQEAUHINSTANCE__@@QEAX@Z 000000018001efdc     LIBCMT:dll_dllmain.obj
 0002:00009018       $unwind$__acrt_update_thread_locale_data$fin$0 000000018001f018     libucrt:locale_refcounting.obj
 0002:00009018       $unwind$?fin$0@?0???$?RV<lambda_2d41944a1d46af3157314b8a01080d33>@@AEAV<lambda_8f455de75cd7d7f24b4096f044d8b9e6>@@V<lambda_aa500f224e6afead328df44964fe2772>@@@?$__crt_seh_guarded_call@X@@QEAAX$$QEAV<lambda_2d41944a1d46af3157314b8a01080d33>@@AEAV<lambda_8f455de75cd7d7f24b4096f044d8b9e6>@@$$QEAV<lambda_aa500f224e6afead328df44964fe2772>@@@Z@4HA 000000018001f018     libucrt:per_thread_data.obj
 0002:00009018       $unwind$?fin$0@?0???$?RV<lambda_a37b2b86f63e897a80ea819b0eb08c01>@@AEAV<lambda_38ce7e780aa69e748d6df282ebc68efe>@@V<lambda_99fb1378e971ab6e7edea83e3a7a83a2>@@@?$__crt_seh_guarded_call@H@@QEAAH$$QEAV<lambda_a37b2b86f63e897a80ea819b0eb08c01>@@AEAV<lambda_38ce7e780aa69e748d6df282ebc68efe>@@$$QEAV<lambda_99fb1378e971ab6e7edea83e3a7a83a2>@@@Z@4HA 000000018001f018     libucrt:commit.obj
 0002:00009018       $unwind$?fin$0@?0???$?RV<lambda_f2e299630e499de9f9a165e60fcd3db5>@@AEAV<lambda_2ae9d31cdba2644fcbeaf08da7c24588>@@V<lambda_40d01ff24d0e7b3814fdbdcee8eab3c7>@@@?$__crt_seh_guarded_call@X@@QEAAX$$QEAV<lambda_f2e299630e499de9f9a165e60fcd3db5>@@AEAV<lambda_2ae9d31cdba2644fcbeaf08da7c24588>@@$$QEAV<lambda_40d01ff24d0e7b3814fdbdcee8eab3c7>@@@Z@4HA 000000018001f018     libucrt:per_thread_data.obj
 0002:00009018       $unwind$_ctrlfp$filt$0     000000018001f018     libucrt:fpctrl.obj
 0002:00009018       $unwind$?fin$0@?0???$?RV<lambda_aa87e3671a710a21b5dc78c0bdf72e11>@@AEAV<lambda_92619d2358a28f41a33ba319515a20b9>@@V<lambda_6992ecaafeb10aed2b74cb1fae11a551>@@@?$__crt_seh_guarded_call@X@@QEAAX$$QEAV<lambda_aa87e3671a710a21b5dc78c0bdf72e11>@@AEAV<lambda_92619d2358a28f41a33ba319515a20b9>@@$$QEAV<lambda_6992ecaafeb10aed2b74cb1fae11a551>@@@Z@4HA 000000018001f018     libucrt:per_thread_data.obj
 0002:00009018       $unwind$?fin$0@?0???$?RV<lambda_0ae27a3a962d80f24befdcbee591983d>@@AEAV<lambda_8d0ee55de4b1038c4002e0adecdf1839>@@V<lambda_dc504788e8f1664fe9b84e20bfb512f2>@@@?$__crt_seh_guarded_call@X@@QEAAX$$QEAV<lambda_0ae27a3a962d80f24befdcbee591983d>@@AEAV<lambda_8d0ee55de4b1038c4002e0adecdf1839>@@$$QEAV<lambda_dc504788e8f1664fe9b84e20bfb512f2>@@@Z@4HA 000000018001f018     libucrt:per_thread_data.obj
 0002:00009018       $unwind$_query_new_handler$fin$0 000000018001f018     libucrt:new_handler.obj
 0002:00009018       $unwind$__acrt_initialize_lowio$fin$0 000000018001f018     libucrt:ioinit.obj
 0002:00009018       $unwind$?fin$0@?0???$?RV<lambda_410d79af7f07d98d83a3f525b3859a53>@@AEAV<lambda_3e16ef9562a7dcce91392c22ab16ea36>@@V<lambda_38119f0e861e05405d8a144b9b982f0a>@@@?$__crt_seh_guarded_call@X@@QEAAX$$QEAV<lambda_410d79af7f07d98d83a3f525b3859a53>@@AEAV<lambda_3e16ef9562a7dcce91392c22ab16ea36>@@$$QEAV<lambda_38119f0e861e05405d8a144b9b982f0a>@@@Z@4HA 000000018001f018     libucrt:wsetlocale.obj
 0002:00009018       $unwind$?fin$0@?0???$?RV<lambda_751a882b2c74d4b022dec766aa51a29a>@@AEAV<lambda_628dfdc04ba53c8bfc02c9951375f3f5>@@V<lambda_f6c7be5f7998530c34de24c7437d6b54>@@@?$__crt_seh_guarded_call@H@@QEAAH$$QEAV<lambda_751a882b2c74d4b022dec766aa51a29a>@@AEAV<lambda_628dfdc04ba53c8bfc02c9951375f3f5>@@$$QEAV<lambda_f6c7be5f7998530c34de24c7437d6b54>@@@Z@4HA 000000018001f018     libucrt:close.obj
 0002:00009018       $unwind$?fin$0@?0???$?RV<lambda_842d9ff0dc9ef11c61343bbaebe7f885>@@AEAV<lambda_c5860995281e5c4ce005b3de8f5874ee>@@V<lambda_d90129c13df834fdcbf8d2b88dafcf2d>@@@?$__crt_seh_guarded_call@X@@QEAAX$$QEAV<lambda_842d9ff0dc9ef11c61343bbaebe7f885>@@AEAV<lambda_c5860995281e5c4ce005b3de8f5874ee>@@$$QEAV<lambda_d90129c13df834fdcbf8d2b88dafcf2d>@@@Z@4HA 000000018001f018     libucrt:fflush.obj
 0002:00009018       $unwind$?fin$0@?0???$?RV<lambda_886d6c58226a84441f68b9f2b8217b83>@@AEAV<lambda_ab61a845afdef5b7c387490eaf3616ee>@@V<lambda_f7f22ab5edc0698d5f6905b0d3f44752>@@@?$__crt_seh_guarded_call@X@@QEAAX$$QEAV<lambda_886d6c58226a84441f68b9f2b8217b83>@@AEAV<lambda_ab61a845afdef5b7c387490eaf3616ee>@@$$QEAV<lambda_f7f22ab5edc0698d5f6905b0d3f44752>@@@Z@4HA 000000018001f018     libucrt:fflush.obj
 0002:00009018       $unwind$_write$fin$0       000000018001f018     libucrt:write.obj
 0002:00009018       $unwind$?fin$0@?0???$?RV<lambda_0d412022a4b28cc8a401ea49574e8ae6>@@AEAV<lambda_a775ed57af18ba8e4d5dc780aa9068fe>@@V<lambda_975a71a6baa488a08f4e15f6b0339b9e>@@@?$__crt_seh_guarded_call@H@@QEAAH$$QEAV<lambda_0d412022a4b28cc8a401ea49574e8ae6>@@AEAV<lambda_a775ed57af18ba8e4d5dc780aa9068fe>@@$$QEAV<lambda_975a71a6baa488a08f4e15f6b0339b9e>@@@Z@4HA 000000018001f018     libucrt:output.obj
 0002:00009018       $unwind$?fin$0@?0???$?RV<lambda_efdfa57d1f175319df784efa44bb7b81>@@AEAV<lambda_5f0a4c1567f8adc6734073e5d1e1b35c>@@V<lambda_2e8a7d3640ea6ccb4c2413664c2db6fd>@@@?$__crt_seh_guarded_call@X@@QEAAX$$QEAV<lambda_efdfa57d1f175319df784efa44bb7b81>@@AEAV<lambda_5f0a4c1567f8adc6734073e5d1e1b35c>@@$$QEAV<lambda_2e8a7d3640ea6ccb4c2413664c2db6fd>@@@Z@4HA 000000018001f018     libucrt:mbctype.obj
 0002:00009018       $unwind$?filt$0@?0???R<lambda_6e4b09c48022b2350581041d5f6b0c4c>@@QEBA@XZ@4HA 000000018001f018     libucrt:exit.obj
 0002:00009018       $unwind$__acrt_lowio_ensure_fh_exists$fin$0 000000018001f018     libucrt:osfinfo.obj
 0002:00009018       $unwind$_fcloseall$fin$0   000000018001f018     libucrt:closeall.obj
 0002:00009018       $unwind$?fin$0@?0???$?RV<lambda_d80eeec6fff315bfe5c115232f3240e3>@@AEAV<lambda_6e4b09c48022b2350581041d5f6b0c4c>@@V<lambda_2358e3775559c9db80273638284d5e45>@@@?$__crt_seh_guarded_call@X@@QEAAX$$QEAV<lambda_d80eeec6fff315bfe5c115232f3240e3>@@AEAV<lambda_6e4b09c48022b2350581041d5f6b0c4c>@@$$QEAV<lambda_2358e3775559c9db80273638284d5e45>@@@Z@4HA 000000018001f018     libucrt:exit.obj
 0002:00009018       $unwind$?fin$0@?0???$?RV<lambda_c376a267cfb53b6959b3b692ec76b120>@@AEAV<lambda_9a32fed5bf61b6b509b2d3f6003082a1>@@V<lambda_572fbb9fa0ab338edf41edfd4b5fcc8d>@@@?$__crt_seh_guarded_call@H@@QEAAH$$QEAV<lambda_c376a267cfb53b6959b3b692ec76b120>@@AEAV<lambda_9a32fed5bf61b6b509b2d3f6003082a1>@@$$QEAV<lambda_572fbb9fa0ab338edf41edfd4b5fcc8d>@@@Z@4HA 000000018001f018     libucrt:fflush.obj
 0002:00009018       $unwind$__DestructExceptionObject$filt$0 000000018001f018     libvcruntime:ehhelpers.obj
 0002:00009018       $unwind$?fin$0@?0??dllmain_crt_process_detach@@YAH_N@Z@4HA 000000018001f018     LIBCMT:dll_dllmain.obj
 0002:00009018       $unwind$?fin$0@?0???$?RV<lambda_84ec643ea9557e2f7dc01bb0e9624395>@@AEAV<lambda_ca71763b3c0644891230e4f79ea54fa6>@@V<lambda_439a761618c59b0600e24586724d733b>@@@?$__crt_seh_guarded_call@H@@QEAAH$$QEAV<lambda_84ec643ea9557e2f7dc01bb0e9624395>@@AEAV<lambda_ca71763b3c0644891230e4f79ea54fa6>@@$$QEAV<lambda_439a761618c59b0600e24586724d733b>@@@Z@4HA 000000018001f018     libucrt:setvbuf.obj
 0002:00009018       $unwind$_IsNonwritableInCurrentImage$filt$0 000000018001f018     LIBCMT:pesect.obj
 0002:00009018       $unwind$?fin$0@?0???$?RV<lambda_450d765d439847d4c735a33c368b5fc0>@@AEAV<lambda_44731a7d0e6d81c3e6aa82d741081786>@@V<lambda_601a2a7da3b7a96e9554ac7215c4b07c>@@@?$__crt_seh_guarded_call@P6AXH@Z@@QEAAP6AXH@Z$$QEAV<lambda_450d765d439847d4c735a33c368b5fc0>@@AEAV<lambda_44731a7d0e6d81c3e6aa82d741081786>@@$$QEAV<lambda_601a2a7da3b7a96e9554ac7215c4b07c>@@@Z@4HA 000000018001f018     libucrt:signal.obj
 0002:00009018       $unwind$?fin$0@?0??update_thread_multibyte_data_internal@@YAPEAU__crt_multibyte_data@@QEAU__acrt_ptd@@QEAPEAU1@@Z@4HA 000000018001f018     libucrt:mbctype.obj
 0002:00009018       $unwind$raise$fin$0        000000018001f018     libucrt:signal.obj
 0002:00009018       $unwind$?fin$0@?0???$?RV<lambda_7777bce6b2f8c936911f934f8298dc43>@@AEAV<lambda_f03950bc5685219e0bcd2087efbe011e>@@V<lambda_3883c3dff614d5e0c5f61bb1ac94921c>@@@?$__crt_seh_guarded_call@H@@QEAAH$$QEAV<lambda_7777bce6b2f8c936911f934f8298dc43>@@AEAV<lambda_f03950bc5685219e0bcd2087efbe011e>@@$$QEAV<lambda_3883c3dff614d5e0c5f61bb1ac94921c>@@@Z@4HA 000000018001f018     libucrt:onexit.obj
 0002:00009018       $unwind$fclose$fin$0       000000018001f018     libucrt:fclose.obj
 0002:00009018       $unwind$?fin$0@?0??dllmain_crt_process_attach@@YAHQEAUHINSTANCE__@@QEAX@Z@4HA 000000018001f018     LIBCMT:dll_dllmain.obj
 0002:00009018       $unwind$?fin$0@?0???$common_lseek@_J@@YA_JH_JH@Z@4HA 000000018001f018     libucrt:lseek.obj
 0002:00009020       $unwind$?dllmain_crt_process_detach@@YAH_N@Z 000000018001f020     LIBCMT:dll_dllmain.obj
 0002:00009058       $unwind$?dllmain_dispatch@@YAHQEAUHINSTANCE__@@KQEAX@Z 000000018001f058     LIBCMT:dll_dllmain.obj
 0002:00009080       $unwind$?filt$0@?0??dllmain_dispatch@@YAHQEAUHINSTANCE__@@KQEAX@Z@4HA 000000018001f080     LIBCMT:dll_dllmain.obj
 0002:00009088       $unwind$__acrt_stdio_flush_and_write_narrow_nolock 000000018001f088     libucrt:_flsbuf.obj
 0002:00009088       $unwind$__vcrt_InitializeCriticalSectionEx 000000018001f088     libvcruntime:winapi_downlevel.obj
 0002:00009088       $unwind$??R<lambda_ca71763b3c0644891230e4f79ea54fa6>@@QEBAHXZ 000000018001f088     libucrt:setvbuf.obj
 0002:00009088       $unwind$?free_crt_array_internal@@YAXQEAPEBX_K@Z 000000018001f088     libucrt:inittime.obj
 0002:00009088       $unwind$??$common_lseek_nolock@_J@@YA_JH_JH@Z 000000018001f088     libucrt:lseek.obj
 0002:00009088       $unwind$memcpy_s           000000018001f088     libucrt:cfout.obj
 0002:00009088       $unwind$__acrt_stdio_flush_nolock 000000018001f088     libucrt:fflush.obj
 0002:00009088       $unwind$_exception_enabled 000000018001f088     libucrt:libm_error.obj
 0002:00009088       $unwind$_DllMainCRTStartup 000000018001f088     LIBCMT:dll_dllmain.obj
 0002:00009088       $unwind$__acrt_stdio_flush_and_write_wide_nolock 000000018001f088     libucrt:_flsbuf.obj
 0002:00009088       $unwind$__acrt_InitializeCriticalSectionEx 000000018001f088     libucrt:winapi_thunks.obj
 0002:00009088       $unwind$??0_LocaleUpdate@@QEAA@QEAU__crt_locale_pointers@@@Z 000000018001f088     libucrt:stricmp.obj
 0002:00009088       $unwind$__vcrt_getptd_noexit 000000018001f088     libvcruntime:per_thread_data.obj
 0002:00009088       $unwind$__acrt_execute_initializers 000000018001f088     libucrt:shared_initialization.obj
 0002:00009088       $unwind$__acrt_getptd      000000018001f088     libucrt:per_thread_data.obj
 0002:00009088       $unwind$__acrt_getptd_noexit 000000018001f088     libucrt:per_thread_data.obj
 0002:00009088       $unwind$?type_case_n@?$output_processor@_WV?$string_output_adapter@_W@__crt_stdio_output@@V?$standard_base@_WV?$string_output_adapter@_W@__crt_stdio_output@@@2@@__crt_stdio_output@@AEAA_NXZ 000000018001f088     libucrt:output.obj
 0002:00009088       $unwind$?type_case_Z@?$output_processor@_WV?$string_output_adapter@_W@__crt_stdio_output@@V?$standard_base@_WV?$string_output_adapter@_W@__crt_stdio_output@@@2@@__crt_stdio_output@@AEAA_NXZ 000000018001f088     libucrt:output.obj
 0002:00009088       $unwind$?type_case_n@?$output_processor@_WV?$stream_output_adapter@_W@__crt_stdio_output@@V?$standard_base@_WV?$stream_output_adapter@_W@__crt_stdio_output@@@2@@__crt_stdio_output@@AEAA_NXZ 000000018001f088     libucrt:output.obj
 0002:00009088       $unwind$?type_case_s@?$output_processor@_WV?$stream_output_adapter@_W@__crt_stdio_output@@V?$standard_base@_WV?$stream_output_adapter@_W@__crt_stdio_output@@@2@@__crt_stdio_output@@AEAA_NXZ 000000018001f088     libucrt:output.obj
 0002:00009088       $unwind$?type_case_Z@?$output_processor@_WV?$stream_output_adapter@_W@__crt_stdio_output@@V?$standard_base@_WV?$stream_output_adapter@_W@__crt_stdio_output@@@2@@__crt_stdio_output@@AEAA_NXZ 000000018001f088     libucrt:output.obj
 0002:00009088       $unwind$?type_case_s@?$output_processor@_WV?$string_output_adapter@_W@__crt_stdio_output@@V?$standard_base@_WV?$string_output_adapter@_W@__crt_stdio_output@@@2@@__crt_stdio_output@@AEAA_NXZ 000000018001f088     libucrt:output.obj
 0002:00009098       $unwind$__report_securityfailure 000000018001f098     LIBCMT:gs_report.obj
 0002:000090a0       $unwind$__report_gsfailure 000000018001f0a0     LIBCMT:gs_report.obj
 0002:000090a8       $unwind$capture_current_context 000000018001f0a8     LIBCMT:gs_report.obj
 0002:000090b4       $unwind$capture_previous_context 000000018001f0b4     LIBCMT:gs_report.obj
 0002:000090c0       $unwind$?__scrt_throw_std_bad_array_new_length@@YAXXZ 000000018001f0c0     LIBCMT:throw_bad_alloc.obj
 0002:000090c0       $unwind$_raise_exc         000000018001f0c0     libucrt:fpexcept.obj
 0002:000090c0       $unwind$?__scrt_throw_std_bad_alloc@@YAXXZ 000000018001f0c0     LIBCMT:throw_bad_alloc.obj
 0002:000090c8       $unwind$__security_init_cookie 000000018001f0c8     LIBCMT:gs_support.obj
 0002:000090d4       $unwind$__scrt_is_nonwritable_in_current_image 000000018001f0d4     LIBCMT:utility.obj
 0002:000090f4       $unwind$__scrt_is_nonwritable_in_current_image$filt$0 000000018001f0f4     LIBCMT:utility.obj
 0002:000090fc       $unwind$__acrt_show_wide_message_box 000000018001f0fc     libucrt:crtmbox.obj
 0002:000090fc       $unwind$__acrt_free_locale 000000018001f0fc     libucrt:locale_refcounting.obj
 0002:000090fc       $unwind$_seh_filter_exe    000000018001f0fc     libucrt:exception_filter.obj
 0002:000090fc       $unwind$_initterm          000000018001f0fc     libucrt:initterm.obj
 0002:000090fc       $unwind$_recalloc_base     000000018001f0fc     libucrt:recalloc.obj
 0002:000090fc       $unwind$??$ensure_buffer_is_big_enough@D@formatting_buffer@__crt_stdio_output@@QEAA_N_K@Z 000000018001f0fc     libucrt:output.obj
 0002:000090fc       $unwind$__scrt_dllmain_exception_filter 000000018001f0fc     LIBCMT:utility.obj
 0002:000090fc       $unwind$__acrt_lowio_create_handle_array 000000018001f0fc     libucrt:osfinfo.obj
 0002:000090fc       $unwind$?setSBCS@@YAXPEAU__crt_multibyte_data@@@Z 000000018001f0fc     libucrt:mbctype.obj
 0002:000090fc       $unwind$_wassert           000000018001f0fc     libucrt:assert.obj
 0002:000090fc       $unwind$??$ensure_buffer_is_big_enough@_W@formatting_buffer@__crt_stdio_output@@QEAA_N_K@Z 000000018001f0fc     libucrt:output.obj
 0002:00009110       $unwind$__scrt_fastfail    000000018001f110     LIBCMT:utility_desktop.obj
 0002:00009120       $unwind$__isa_available_init 000000018001f120     LIBCMT:cpu_disp.obj
 0002:00009130       $xdatasym                  000000018001f130     LIBCMT:guard_dispatch.obj
 0002:00009134       $unwind$__C_specific_handler 000000018001f134     libvcruntime:riscchandler.obj
 0002:00009150       $unwind$__std_exception_copy 000000018001f150     libvcruntime:std_exception.obj
 0002:00009150       $unwind$_free_osfhnd       000000018001f150     libucrt:osfinfo.obj
 0002:00009164       $unwind$_CxxThrowException 000000018001f164     libvcruntime:throw.obj
 0002:00009178       $xdatasym                  000000018001f178     libvcruntime:memset.obj
 0002:00009188       $xdatasym                  000000018001f188     libvcruntime:notify.obj
 0002:00009194       $unwind$__DestructExceptionObject 000000018001f194     libvcruntime:ehhelpers.obj
 0002:000091b4       $unwind$__vcrt_initialize_winapi_thunks 000000018001f1b4     libvcruntime:winapi_downlevel.obj
 0002:000091b4       $unwind$__acrt_initialize_winapi_thunks 000000018001f1b4     libucrt:winapi_thunks.obj
 0002:000091bc       $unwind$__vcrt_uninitialize_winapi_thunks 000000018001f1bc     libvcruntime:winapi_downlevel.obj
 0002:000091bc       $unwind$__acrt_stdio_end_temporary_buffering_nolock 000000018001f1bc     libucrt:_sftbuf.obj
 0002:000091c4       $unwind$?try_get_function@@YAPEAXW4function_id@?A0x391cf84c@@QEBDQEBW4module_id@2@2@Z 000000018001f1c4     libucrt:winapi_thunks.obj
 0002:000091c4       $unwind$?try_get_function@@YAPEAXW4function_id@?A0x14c33c87@@QEBDQEBW4module_id@2@2@Z 000000018001f1c4     libvcruntime:winapi_downlevel.obj
 0002:000091e0       $xdatasym                  000000018001f1e0     libvcruntime:memcpy.obj
 0002:000091f0       $xdatasym                  000000018001f1f0     libvcruntime:handlers.obj
 0002:00009200       $unwind$fwprintf           000000018001f200     libucrt:assert.obj
 0002:0000920c       $unwind$swprintf           000000018001f20c     libucrt:assert.obj
 0002:0000921c       $unwind$??$common_assert_to_stderr@_W@@YAXQEB_W0I@Z 000000018001f21c     libucrt:assert.obj
 0002:00009238       $unwind$??$common_assert_to_message_box@_W@@YAXQEB_W0IQEAX@Z 000000018001f238     libucrt:assert.obj
 0002:00009254       $unwind$??$common_assert_to_message_box_build_string@_W@@YAXQEA_W_KQEB_W2IQEAX@Z 000000018001f254     libucrt:assert.obj
 0002:00009274       $unwind$_stricmp_l         000000018001f274     libucrt:stricmp.obj
 0002:00009274       $unwind$?x_ismbbtype_l@@YAHPEAU__crt_locale_pointers@@IHH@Z 000000018001f274     libucrt:ismbbyte.obj
 0002:00009284       $unwind$_query_new_handler 000000018001f284     libucrt:new_handler.obj
 0002:000092a4       $unwind$?common_exit@@YAXHW4_crt_exit_cleanup_mode@@W4_crt_exit_return_mode@@@Z 000000018001f2a4     libucrt:exit.obj
 0002:000092b0       $unwind$??R<lambda_6e4b09c48022b2350581041d5f6b0c4c>@@QEBA@XZ 000000018001f2b0     libucrt:exit.obj
 0002:000092d0       $unwind$??$?RV<lambda_d80eeec6fff315bfe5c115232f3240e3>@@AEAV<lambda_6e4b09c48022b2350581041d5f6b0c4c>@@V<lambda_2358e3775559c9db80273638284d5e45>@@@?$__crt_seh_guarded_call@X@@QEAAX$$QEAV<lambda_d80eeec6fff315bfe5c115232f3240e3>@@AEAV<lambda_6e4b09c48022b2350581041d5f6b0c4c>@@$$QEAV<lambda_2358e3775559c9db80273638284d5e45>@@@Z 000000018001f2d0     libucrt:exit.obj
 0002:000092f4       $unwind$_configure_narrow_argv 000000018001f2f4     libucrt:argv_parsing.obj
 0002:00009308       $unwind$?write_string_impl@?$output_adapter_common@_WV?$stream_output_adapter@_W@__crt_stdio_output@@@__crt_stdio_output@@IEBAXQEB_WHQEAHAEAV__crt_deferred_errno_cache@@@Z 000000018001f308     libucrt:output.obj
 0002:00009308       $unwind$??$parse_command_line@D@@YAXPEADPEAPEAD0PEA_K2@Z 000000018001f308     libucrt:argv_parsing.obj
 0002:00009324       $unwind$??$free_environment@_W@@YAXQEAPEA_W@Z 000000018001f324     libucrt:environment_initialization.obj
 0002:00009324       $unwind$??$free_environment@D@@YAXQEAPEAD@Z 000000018001f324     libucrt:environment_initialization.obj
 0002:00009330       $unwind$??$create_environment@D@@YAQEAPEADQEAD@Z 000000018001f330     libucrt:environment_initialization.obj
 0002:00009348       $unwind$_execute_onexit_table 000000018001f348     libucrt:onexit.obj
 0002:00009350       $unwind$??$common_xtox@K_W@@YAHKQEA_W_KI_N@Z 000000018001f350     libucrt:xtoa.obj
 0002:00009350       $unwind$??R<lambda_f03950bc5685219e0bcd2087efbe011e>@@QEBAHXZ 000000018001f350     libucrt:onexit.obj
 0002:00009350       $unwind$?type_case_integer@?$output_processor@_WV?$string_output_adapter@_W@__crt_stdio_output@@V?$standard_base@_WV?$string_output_adapter@_W@__crt_stdio_output@@@2@@__crt_stdio_output@@AEAA_NI_N@Z 000000018001f350     libucrt:output.obj
 0002:00009350       $unwind$?type_case_integer@?$output_processor@_WV?$stream_output_adapter@_W@__crt_stdio_output@@V?$standard_base@_WV?$stream_output_adapter@_W@__crt_stdio_output@@@2@@__crt_stdio_output@@AEAA_NI_N@Z 000000018001f350     libucrt:output.obj
 0002:00009368       $unwind$??$?RV<lambda_7777bce6b2f8c936911f934f8298dc43>@@AEAV<lambda_f03950bc5685219e0bcd2087efbe011e>@@V<lambda_3883c3dff614d5e0c5f61bb1ac94921c>@@@?$__crt_seh_guarded_call@H@@QEAAH$$QEAV<lambda_7777bce6b2f8c936911f934f8298dc43>@@AEAV<lambda_f03950bc5685219e0bcd2087efbe011e>@@$$QEAV<lambda_3883c3dff614d5e0c5f61bb1ac94921c>@@@Z 000000018001f368     libucrt:onexit.obj
 0002:0000938c       $unwind$terminate          000000018001f38c     libucrt:terminate.obj
 0002:000093ac       $unwind$__stdio_common_vfwprintf 000000018001f3ac     libucrt:output.obj
 0002:000093b4       $unwind$??$common_vsprintf@Vstandard_base@__crt_stdio_output@@_W@@YAH_KQEA_W0QEB_WQEAU__crt_locale_pointers@@QEAD@Z 000000018001f3b4     libucrt:output.obj
 0002:000093d4       $unwind$?process@?$output_processor@_WV?$string_output_adapter@_W@__crt_stdio_output@@V?$standard_base@_WV?$string_output_adapter@_W@__crt_stdio_output@@@2@@__crt_stdio_output@@QEAAHXZ 000000018001f3d4     libucrt:output.obj
 0002:000093d4       $unwind$?process@?$output_processor@_WV?$stream_output_adapter@_W@__crt_stdio_output@@V?$standard_base@_WV?$stream_output_adapter@_W@__crt_stdio_output@@@2@@__crt_stdio_output@@QEAAHXZ 000000018001f3d4     libucrt:output.obj
 0002:000093e8       $unwind$?parse_int_from_format_string@?$output_processor@_WV?$stream_output_adapter@_W@__crt_stdio_output@@V?$standard_base@_WV?$stream_output_adapter@_W@__crt_stdio_output@@@2@@__crt_stdio_output@@AEAA_NQEAH@Z 000000018001f3e8     libucrt:output.obj
 0002:000093e8       $unwind$?parse_int_from_format_string@?$output_processor@_WV?$string_output_adapter@_W@__crt_stdio_output@@V?$standard_base@_WV?$string_output_adapter@_W@__crt_stdio_output@@@2@@__crt_stdio_output@@AEAA_NQEAH@Z 000000018001f3e8     libucrt:output.obj
 0002:000093fc       $unwind$?state_case_type@?$output_processor@_WV?$stream_output_adapter@_W@__crt_stdio_output@@V?$standard_base@_WV?$stream_output_adapter@_W@__crt_stdio_output@@@2@@__crt_stdio_output@@AEAA_NXZ 000000018001f3fc     libucrt:output.obj
 0002:0000941c       $unwind$?type_case_c_tchar@?$output_processor@_WV?$stream_output_adapter@_W@__crt_stdio_output@@V?$standard_base@_WV?$stream_output_adapter@_W@__crt_stdio_output@@@2@@__crt_stdio_output@@AEAA_N_W@Z 000000018001f41c     libucrt:output.obj
 0002:0000941c       $unwind$?type_case_c_tchar@?$output_processor@_WV?$string_output_adapter@_W@__crt_stdio_output@@V?$standard_base@_WV?$string_output_adapter@_W@__crt_stdio_output@@@2@@__crt_stdio_output@@AEAA_N_W@Z 000000018001f41c     libucrt:output.obj
 0002:0000942c       $unwind$?type_case_a@?$output_processor@_WV?$string_output_adapter@_W@__crt_stdio_output@@V?$standard_base@_WV?$string_output_adapter@_W@__crt_stdio_output@@@2@@__crt_stdio_output@@AEAA_NXZ 000000018001f42c     libucrt:output.obj
 0002:0000942c       $unwind$?type_case_a@?$output_processor@_WV?$stream_output_adapter@_W@__crt_stdio_output@@V?$standard_base@_WV?$stream_output_adapter@_W@__crt_stdio_output@@@2@@__crt_stdio_output@@AEAA_NXZ 000000018001f42c     libucrt:output.obj
 0002:0000943c       $unwind$?write_stored_string_tchar@?$output_processor@_WV?$stream_output_adapter@_W@__crt_stdio_output@@V?$standard_base@_WV?$stream_output_adapter@_W@__crt_stdio_output@@@2@@__crt_stdio_output@@AEAA_N_W@Z 000000018001f43c     libucrt:output.obj
 0002:00009450       $unwind$??R<lambda_a775ed57af18ba8e4d5dc780aa9068fe>@@QEBAHXZ 000000018001f450     libucrt:output.obj
 0002:00009470       $unwind$?write_string@?$string_output_adapter@_W@__crt_stdio_output@@QEBAXQEB_WHQEAHAEAV__crt_deferred_errno_cache@@@Z 000000018001f470     libucrt:output.obj
 0002:00009488       $unwind$?state_case_type@?$output_processor@_WV?$string_output_adapter@_W@__crt_stdio_output@@V?$standard_base@_WV?$string_output_adapter@_W@__crt_stdio_output@@@2@@__crt_stdio_output@@AEAA_NXZ 000000018001f488     libucrt:output.obj
 0002:000094ac       $unwind$?write_stored_string_tchar@?$output_processor@_WV?$string_output_adapter@_W@__crt_stdio_output@@V?$standard_base@_WV?$string_output_adapter@_W@__crt_stdio_output@@@2@@__crt_stdio_output@@AEAA_N_W@Z 000000018001f4ac     libucrt:output.obj
 0002:000094c0       $unwind$??$write_multiple_characters@V?$string_output_adapter@_W@__crt_stdio_output@@D@__crt_stdio_output@@YAXAEBV?$string_output_adapter@_W@0@DHQEAH@Z 000000018001f4c0     libucrt:output.obj
 0002:000094cc       $unwind$??$write_multiple_characters@V?$stream_output_adapter@_W@__crt_stdio_output@@D@__crt_stdio_output@@YAXAEBV?$stream_output_adapter@_W@0@DHQEAH@Z 000000018001f4cc     libucrt:output.obj
 0002:000094e4       $unwind$??$type_case_integer_parse_into_buffer@_K@?$output_processor@_WV?$string_output_adapter@_W@__crt_stdio_output@@V?$standard_base@_WV?$string_output_adapter@_W@__crt_stdio_output@@@2@@__crt_stdio_output@@AEAAX_KI_N@Z 000000018001f4e4     libucrt:output.obj
 0002:000094e4       $unwind$??$type_case_integer_parse_into_buffer@_K@?$output_processor@_WV?$stream_output_adapter@_W@__crt_stdio_output@@V?$standard_base@_WV?$stream_output_adapter@_W@__crt_stdio_output@@@2@@__crt_stdio_output@@AEAAX_KI_N@Z 000000018001f4e4     libucrt:output.obj
 0002:000094e4       $unwind$??$type_case_integer_parse_into_buffer@I@?$output_processor@_WV?$stream_output_adapter@_W@__crt_stdio_output@@V?$standard_base@_WV?$stream_output_adapter@_W@__crt_stdio_output@@@2@@__crt_stdio_output@@AEAAXII_N@Z 000000018001f4e4     libucrt:output.obj
 0002:000094e4       $unwind$??$type_case_integer_parse_into_buffer@I@?$output_processor@_WV?$string_output_adapter@_W@__crt_stdio_output@@V?$standard_base@_WV?$string_output_adapter@_W@__crt_stdio_output@@@2@@__crt_stdio_output@@AEAAXII_N@Z 000000018001f4e4     libucrt:output.obj
 0002:000094ec       $unwind$??$?RV<lambda_0d412022a4b28cc8a401ea49574e8ae6>@@AEAV<lambda_a775ed57af18ba8e4d5dc780aa9068fe>@@V<lambda_975a71a6baa488a08f4e15f6b0339b9e>@@@?$__crt_seh_guarded_call@H@@QEAAH$$QEAV<lambda_0d412022a4b28cc8a401ea49574e8ae6>@@AEAV<lambda_a775ed57af18ba8e4d5dc780aa9068fe>@@$$QEAV<lambda_975a71a6baa488a08f4e15f6b0339b9e>@@@Z 000000018001f4ec     libucrt:output.obj
 0002:00009510       $unwind$??$parse_integer@KV?$c_string_character_source@_W@__crt_strtox@@@__crt_strtox@@YAKQEAU__crt_locale_pointers@@V?$c_string_character_source@_W@0@H_N@Z 000000018001f510     libucrt:atox.obj
 0002:00009528       $xdatasym                  000000018001f528     libucrt:strncmp.obj
 0002:0000952c       $unwind$wctomb_s           000000018001f52c     libucrt:wctomb.obj
 0002:0000952c       $unwind$fflush             000000018001f52c     libucrt:fflush.obj
 0002:0000952c       $unwind$wcstol             000000018001f52c     libucrt:strtox.obj
 0002:0000952c       $unwind$_log10_special     000000018001f52c     libucrt:log_special.obj
 0002:0000952c       $unwind$_invalid_parameter_noinfo 000000018001f52c     libucrt:invalid_parameter.obj
 0002:0000952c       $unwind$_itow_s            000000018001f52c     libucrt:xtoa.obj
 0002:00009534       $unwind$__acrt_call_reportfault 000000018001f534     libucrt:invalid_parameter.obj
 0002:00009554       $unwind$__acrt_MessageBoxW 000000018001f554     libucrt:winapi_thunks.obj
 0002:00009554       $unwind$_invalid_parameter 000000018001f554     libucrt:invalid_parameter.obj
 0002:00009568       $unwind$??$common_xtox_s@K_W@@YAHKQEA_W_KI_N@Z 000000018001f568     libucrt:xtoa.obj
 0002:00009568       $unwind$?__mbrtowc_utf8@__crt_mbstring@@YA_KPEA_WPEBD_KPEAU_Mbstatet@@@Z 000000018001f568     libucrt:mbrtowc.obj
 0002:00009570       $unwind$__acrt_GetModuleFileNameA 000000018001f570     libucrt:getmodulefilenamea.obj
 0002:0000958c       $unwind$__dcrt_write_console 000000018001f58c     libucrt:initcon.obj
 0002:0000958c       $unwind$??$__acrt_wcs_to_mbs_cp@U__crt_win32_buffer_no_resizing@@@@YAHQEB_WAEAV?$__crt_win32_buffer@DU__crt_win32_buffer_no_resizing@@@@I@Z 000000018001f58c     libucrt:getmodulefilenamea.obj
 0002:000095a0       $unwind$?initialize_stdio_handles_nolock@@YAXXZ 000000018001f5a0     libucrt:ioinit.obj
 0002:000095a0       $unwind$__acrt_initialize_stdio 000000018001f5a0     libucrt:_file.obj
 0002:000095b8       $unwind$?common_flush_all@@YAH_N@Z 000000018001f5b8     libucrt:fflush.obj
 0002:000095c0       $unwind$??$?RV<lambda_842d9ff0dc9ef11c61343bbaebe7f885>@@AEAV<lambda_c5860995281e5c4ce005b3de8f5874ee>@@V<lambda_d90129c13df834fdcbf8d2b88dafcf2d>@@@?$__crt_seh_guarded_call@X@@QEAAX$$QEAV<lambda_842d9ff0dc9ef11c61343bbaebe7f885>@@AEAV<lambda_c5860995281e5c4ce005b3de8f5874ee>@@$$QEAV<lambda_d90129c13df834fdcbf8d2b88dafcf2d>@@@Z 000000018001f5c0     libucrt:fflush.obj
 0002:000095e4       $unwind$??$?RV<lambda_886d6c58226a84441f68b9f2b8217b83>@@AEAV<lambda_ab61a845afdef5b7c387490eaf3616ee>@@V<lambda_f7f22ab5edc0698d5f6905b0d3f44752>@@@?$__crt_seh_guarded_call@X@@QEAAX$$QEAV<lambda_886d6c58226a84441f68b9f2b8217b83>@@AEAV<lambda_ab61a845afdef5b7c387490eaf3616ee>@@$$QEAV<lambda_f7f22ab5edc0698d5f6905b0d3f44752>@@@Z 000000018001f5e4     libucrt:fflush.obj
 0002:0000960c       $unwind$??$?RV<lambda_c376a267cfb53b6959b3b692ec76b120>@@AEAV<lambda_9a32fed5bf61b6b509b2d3f6003082a1>@@V<lambda_572fbb9fa0ab338edf41edfd4b5fcc8d>@@@?$__crt_seh_guarded_call@H@@QEAAH$$QEAV<lambda_c376a267cfb53b6959b3b692ec76b120>@@AEAV<lambda_9a32fed5bf61b6b509b2d3f6003082a1>@@$$QEAV<lambda_572fbb9fa0ab338edf41edfd4b5fcc8d>@@@Z 000000018001f60c     libucrt:fflush.obj
 0002:00009630       $unwind$setvbuf            000000018001f630     libucrt:setvbuf.obj
 0002:00009638       $unwind$??$?RV<lambda_84ec643ea9557e2f7dc01bb0e9624395>@@AEAV<lambda_ca71763b3c0644891230e4f79ea54fa6>@@V<lambda_439a761618c59b0600e24586724d733b>@@@?$__crt_seh_guarded_call@H@@QEAAH$$QEAV<lambda_84ec643ea9557e2f7dc01bb0e9624395>@@AEAV<lambda_ca71763b3c0644891230e4f79ea54fa6>@@$$QEAV<lambda_439a761618c59b0600e24586724d733b>@@@Z 000000018001f638     libucrt:setvbuf.obj
 0002:0000965c       $unwind$__acrt_uninitialize_locale 000000018001f65c     libucrt:wsetlocale.obj
 0002:0000965c       $unwind$__acrt_get_sigabrt_handler 000000018001f65c     libucrt:signal.obj
 0002:00009664       $unwind$raise              000000018001f664     libucrt:signal.obj
 0002:000096a0       $unwind$??$?RV<lambda_450d765d439847d4c735a33c368b5fc0>@@AEAV<lambda_44731a7d0e6d81c3e6aa82d741081786>@@V<lambda_601a2a7da3b7a96e9554ac7215c4b07c>@@@?$__crt_seh_guarded_call@P6AXH@Z@@QEAAP6AXH@Z$$QEAV<lambda_450d765d439847d4c735a33c368b5fc0>@@AEAV<lambda_44731a7d0e6d81c3e6aa82d741081786>@@$$QEAV<lambda_601a2a7da3b7a96e9554ac7215c4b07c>@@@Z 000000018001f6a0     libucrt:signal.obj
 0002:000096c4       $unwind$_tolower_l         000000018001f6c4     libucrt:tolower_toupper.obj
 0002:000096d4       $unwind$_free_base         000000018001f6d4     libucrt:free_base.obj
 0002:000096d4       $unwind$__acrt_locale_free_numeric 000000018001f6d4     libucrt:initnum.obj
 0002:000096d4       $unwind$__acrt_locale_free_lc_time_if_unreferenced 000000018001f6d4     libucrt:locale_refcounting.obj
 0002:000096d4       $unwind$?destroy_fls@@YAXPEAX@Z 000000018001f6d4     libucrt:per_thread_data.obj
 0002:000096dc       $unwind$?construct_ptd_array@@YAXQEAU__acrt_ptd@@@Z 000000018001f6dc     libucrt:per_thread_data.obj
 0002:000096e4       $unwind$?destroy_ptd_array@@YAXQEAU__acrt_ptd@@@Z 000000018001f6e4     libucrt:per_thread_data.obj
 0002:000096ec       $unwind$??$?RV<lambda_0ae27a3a962d80f24befdcbee591983d>@@AEAV<lambda_8d0ee55de4b1038c4002e0adecdf1839>@@V<lambda_dc504788e8f1664fe9b84e20bfb512f2>@@@?$__crt_seh_guarded_call@X@@QEAAX$$QEAV<lambda_0ae27a3a962d80f24befdcbee591983d>@@AEAV<lambda_8d0ee55de4b1038c4002e0adecdf1839>@@$$QEAV<lambda_dc504788e8f1664fe9b84e20bfb512f2>@@@Z 000000018001f6ec     libucrt:per_thread_data.obj
 0002:00009710       $unwind$??$?RV<lambda_aa87e3671a710a21b5dc78c0bdf72e11>@@AEAV<lambda_92619d2358a28f41a33ba319515a20b9>@@V<lambda_6992ecaafeb10aed2b74cb1fae11a551>@@@?$__crt_seh_guarded_call@X@@QEAAX$$QEAV<lambda_aa87e3671a710a21b5dc78c0bdf72e11>@@AEAV<lambda_92619d2358a28f41a33ba319515a20b9>@@$$QEAV<lambda_6992ecaafeb10aed2b74cb1fae11a551>@@@Z 000000018001f710     libucrt:per_thread_data.obj
 0002:00009734       $unwind$??$?RV<lambda_f2e299630e499de9f9a165e60fcd3db5>@@AEAV<lambda_2ae9d31cdba2644fcbeaf08da7c24588>@@V<lambda_40d01ff24d0e7b3814fdbdcee8eab3c7>@@@?$__crt_seh_guarded_call@X@@QEAAX$$QEAV<lambda_f2e299630e499de9f9a165e60fcd3db5>@@AEAV<lambda_2ae9d31cdba2644fcbeaf08da7c24588>@@$$QEAV<lambda_40d01ff24d0e7b3814fdbdcee8eab3c7>@@@Z 000000018001f734     libucrt:per_thread_data.obj
 0002:00009758       $unwind$??$?RV<lambda_2d41944a1d46af3157314b8a01080d33>@@AEAV<lambda_8f455de75cd7d7f24b4096f044d8b9e6>@@V<lambda_aa500f224e6afead328df44964fe2772>@@@?$__crt_seh_guarded_call@X@@QEAAX$$QEAV<lambda_2d41944a1d46af3157314b8a01080d33>@@AEAV<lambda_8f455de75cd7d7f24b4096f044d8b9e6>@@$$QEAV<lambda_aa500f224e6afead328df44964fe2772>@@@Z 000000018001f758     libucrt:per_thread_data.obj
 0002:0000977c       $unwind$??$?RV<lambda_410d79af7f07d98d83a3f525b3859a53>@@AEAV<lambda_3e16ef9562a7dcce91392c22ab16ea36>@@V<lambda_38119f0e861e05405d8a144b9b982f0a>@@@?$__crt_seh_guarded_call@X@@QEAAX$$QEAV<lambda_410d79af7f07d98d83a3f525b3859a53>@@AEAV<lambda_3e16ef9562a7dcce91392c22ab16ea36>@@$$QEAV<lambda_38119f0e861e05405d8a144b9b982f0a>@@@Z 000000018001f77c     libucrt:wsetlocale.obj
 0002:000097a4       $unwind$??$__acrt_mbs_to_wcs_cp@U__crt_win32_buffer_internal_dynamic_resizing@@@@YAHQEBDAEAV?$__crt_win32_buffer@_WU__crt_win32_buffer_internal_dynamic_resizing@@@@I@Z 000000018001f7a4     libucrt:argv_wildcards.obj
 0002:000097bc       $unwind$__dcrt_get_narrow_environment_from_os 000000018001f7bc     libucrt:get_environment_from_os.obj
 0002:000097bc       $unwind$?fp_format_f_internal@@YAHQEAD_KHQEAU_strflt@@_NQEAU__crt_locale_pointers@@@Z 000000018001f7bc     libucrt:cvt.obj
 0002:000097bc       $unwind$??$__acrt_wcs_to_mbs_cp@U__crt_win32_buffer_internal_dynamic_resizing@@@@YAHQEB_WAEAV?$__crt_win32_buffer@DU__crt_win32_buffer_internal_dynamic_resizing@@@@I@Z 000000018001f7bc     libucrt:argv_wildcards.obj
 0002:000097d4       $unwind$??$common_expand_argv_wildcards@D@@YAHQEAPEADQEAPEAPEAD@Z 000000018001f7d4     libucrt:argv_wildcards.obj
 0002:000097ec       $unwind$??$copy_and_add_argument_to_buffer@D@@YAHQEBD0_KAEAV?$argument_list@D@?A0x5f5c8891@@@Z 000000018001f7ec     libucrt:argv_wildcards.obj
 0002:00009808       $unwind$??$expand_argument_wildcards@D@@YAHQEAD0AEAV?$argument_list@D@?A0x5f5c8891@@@Z 000000018001f808     libucrt:argv_wildcards.obj
 0002:0000982c       $unwind$_setmbcp_nolock    000000018001f82c     libucrt:mbctype.obj
 0002:0000984c       $unwind$?update_thread_multibyte_data_internal@@YAPEAU__crt_multibyte_data@@QEAU__acrt_ptd@@QEAPEAU1@@Z 000000018001f84c     libucrt:mbctype.obj
 0002:00009874       $unwind$?setmbcp_internal@@YAHH_NQEAU__acrt_ptd@@QEAPEAU__crt_multibyte_data@@@Z 000000018001f874     libucrt:mbctype.obj
 0002:00009884       $unwind$?setSBUpLow@@YAXPEAU__crt_multibyte_data@@@Z 000000018001f884     libucrt:mbctype.obj
 0002:000098a0       $unwind$??$?RV<lambda_efdfa57d1f175319df784efa44bb7b81>@@AEAV<lambda_5f0a4c1567f8adc6734073e5d1e1b35c>@@V<lambda_2e8a7d3640ea6ccb4c2413664c2db6fd>@@@?$__crt_seh_guarded_call@X@@QEAAX$$QEAV<lambda_efdfa57d1f175319df784efa44bb7b81>@@AEAV<lambda_5f0a4c1567f8adc6734073e5d1e1b35c>@@$$QEAV<lambda_2e8a7d3640ea6ccb4c2413664c2db6fd>@@@Z 000000018001f8a0     libucrt:mbctype.obj
 0002:000098c4       $unwind$__acrt_WideCharToMultiByte 000000018001f8c4     libucrt:widechartomultibyte.obj
 0002:000098c4       $unwind$__GSHandlerCheckCommon 000000018001f8c4     LIBCMT:gshandler.obj
 0002:000098cc       $unwind$__acrt_LCMapStringEx 000000018001f8cc     libucrt:winapi_thunks.obj
 0002:000098cc       $unwind$_mbtowc_l          000000018001f8cc     libucrt:mbtowc.obj
 0002:000098cc       $unwind$?fp_format_e@@YAHQEBNQEAD_K12H_NIQEAU__crt_locale_pointers@@@Z 000000018001f8cc     libucrt:cvt.obj
 0002:000098e0       $unwind$__acrt_is_interactive 000000018001f8e0     libucrt:winapi_thunks.obj
 0002:000098f4       $unwind$__acrt_initialize_lowio 000000018001f8f4     libucrt:ioinit.obj
 0002:00009914       $unwind$?initialize_inherited_file_handles_nolock@@YAXXZ 000000018001f914     libucrt:ioinit.obj
 0002:00009930       $unwind$isdigit            000000018001f930     libucrt:_ctype.obj
 0002:00009930       $unwind$_mbsdec_l          000000018001f930     libucrt:mbsdec.obj
 0002:0000993c       $unwind$_wctomb_s_l        000000018001f93c     libucrt:wctomb.obj
 0002:0000994c       $unwind$__acrt_fp_format   000000018001f94c     libucrt:cvt.obj
 0002:00009960       $unwind$?fp_format_nan_or_infinity@@YAHW4__acrt_fp_class@@_NPEAD_K1@Z 000000018001f960     libucrt:cvt.obj
 0002:00009974       $unwind$?fp_format_e_internal@@YAHQEAD_KH_NIQEAU_strflt@@2QEAU__crt_locale_pointers@@@Z 000000018001f974     libucrt:cvt.obj
 0002:0000998c       $unwind$?fp_format_a@@YAHQEBNPEAD_KQEAD2H_NIQEAU__crt_locale_pointers@@@Z 000000018001f98c     libucrt:cvt.obj
 0002:000099a8       $unwind$?fp_format_g@@YAHQEBNQEAD_K12H_NIQEAU__crt_locale_pointers@@@Z 000000018001f9a8     libucrt:cvt.obj
 0002:000099bc       $unwind$_fputwc_nolock     000000018001f9bc     libucrt:fputwc.obj
 0002:000099d8       $unwind$iswctype           000000018001f9d8     libucrt:iswctype.obj
 0002:000099e4       $unwind$_isctype_l         000000018001f9e4     libucrt:isctype.obj
 0002:00009a00       $unwind$_fcloseall         000000018001fa00     libucrt:closeall.obj
 0002:00009a24       $unwind$_commit            000000018001fa24     libucrt:commit.obj
 0002:00009a24       $unwind$_close             000000018001fa24     libucrt:close.obj
 0002:00009a2c       $unwind$??$?RV<lambda_a37b2b86f63e897a80ea819b0eb08c01>@@AEAV<lambda_38ce7e780aa69e748d6df282ebc68efe>@@V<lambda_99fb1378e971ab6e7edea83e3a7a83a2>@@@?$__crt_seh_guarded_call@H@@QEAAH$$QEAV<lambda_a37b2b86f63e897a80ea819b0eb08c01>@@AEAV<lambda_38ce7e780aa69e748d6df282ebc68efe>@@$$QEAV<lambda_99fb1378e971ab6e7edea83e3a7a83a2>@@@Z 000000018001fa2c     libucrt:commit.obj
 0002:00009a50       $unwind$_write             000000018001fa50     libucrt:write.obj
 0002:00009a80       $unwind$_write_nolock      000000018001fa80     libucrt:write.obj
 0002:00009a98       $unwind$?write_double_translated_ansi_nolock@@YA?AUwrite_result@?A0x17268360@@HQEBDI@Z 000000018001fa98     libucrt:write.obj
 0002:00009abc       $unwind$?write_text_utf16le_nolock@@YA?AUwrite_result@?A0x17268360@@HQEBDI@Z 000000018001fabc     libucrt:write.obj
 0002:00009abc       $unwind$?write_text_ansi_nolock@@YA?AUwrite_result@?A0x17268360@@HQEBDI@Z 000000018001fabc     libucrt:write.obj
 0002:00009adc       $unwind$?write_text_utf8_nolock@@YA?AUwrite_result@?A0x17268360@@HQEBDI@Z 000000018001fadc     libucrt:write.obj
 0002:00009b00       $unwind$__acrt_LCMapStringA 000000018001fb00     libucrt:lcmapstringa.obj
 0002:00009b10       $unwind$?__acrt_LCMapStringA_stat@@YAHPEAU__crt_locale_pointers@@PEB_WKPEBDHPEADHHH@Z 000000018001fb10     libucrt:lcmapstringa.obj
 0002:00009b38       $unwind$__acrt_update_thread_locale_data 000000018001fb38     libucrt:locale_refcounting.obj
 0002:00009b5c       $unwind$__acrt_locale_free_monetary 000000018001fb5c     libucrt:initmon.obj
 0002:00009b64       $unwind$__acrt_locale_free_time 000000018001fb64     libucrt:inittime.obj
 0002:00009b74       $unwind$__acrt_GetStringTypeA 000000018001fb74     libucrt:getstringtypea.obj
 0002:00009b9c       $unwind$qsort              000000018001fb9c     libucrt:qsort.obj
 0002:00009bb4       $chain$4$qsort             000000018001fbb4     libucrt:qsort.obj
 0002:00009bd8       $chain$5$qsort             000000018001fbd8     libucrt:qsort.obj
 0002:00009be8       $unwind$strpbrk            000000018001fbe8     libucrt:strpbrk.obj
 0002:00009bf8       $unwind$fallbackMethod     000000018001fbf8     libucrt:strpbrk.obj
 0002:00009c08       $unwind$?GetTableIndexFromLocaleName@@YAHPEB_W@Z 000000018001fc08     libucrt:lcidtoname_downlevel.obj
 0002:00009c20       $unwind$__acrt_lowio_destroy_handle_array 000000018001fc20     libucrt:osfinfo.obj
 0002:00009c30       $unwind$__acrt_lowio_ensure_fh_exists 000000018001fc30     libucrt:osfinfo.obj
 0002:00009c5c       $unwind$?__mbsrtowcs_utf8@__crt_mbstring@@YA_KPEA_WPEAPEBD_KPEAU_Mbstatet@@@Z 000000018001fc5c     libucrt:mbrtowc.obj
 0002:00009c74       $unwind$__acrt_fltout      000000018001fc74     libucrt:cfout.obj
 0002:00009c94       $unwind$?divide@__crt_strtox@@YA_KAEAUbig_integer@1@AEBU21@@Z 000000018001fc94     libucrt:cfout.obj
 0002:00009cac       $chain$0$?divide@__crt_strtox@@YA_KAEAUbig_integer@1@AEBU21@@Z 000000018001fcac     libucrt:cfout.obj
 0002:00009cc0       $chain$1$?divide@__crt_strtox@@YA_KAEAUbig_integer@1@AEBU21@@Z 000000018001fcc0     libucrt:cfout.obj
 0002:00009cd0       $unwind$??$write_buffer_nolock@D@@YA_NDV__crt_stdio_stream@@@Z 000000018001fcd0     libucrt:_flsbuf.obj
 0002:00009ce0       $unwind$??$write_buffer_nolock@_W@@YA_N_WV__crt_stdio_stream@@@Z 000000018001fce0     libucrt:_flsbuf.obj
 0002:00009cf0       $unwind$fclose             000000018001fcf0     libucrt:fclose.obj
 0002:00009d14       $unwind$??$common_lseek@_J@@YA_JH_JH@Z 000000018001fd14     libucrt:lseek.obj
 0002:00009d44       $unwind$_putwch_nolock     000000018001fd44     libucrt:putwch.obj
 0002:00009d4c       $unwind$?__mbrtoc32_utf8@__crt_mbstring@@YA_KPEA_UPEBD_KPEAU_Mbstatet@@@Z 000000018001fd4c     libucrt:mbrtoc32.obj
 0002:00009d68       $xdatasym                  000000018001fd68     libucrt:log10.obj
 0002:00009d74       $unwind$??$?RV<lambda_751a882b2c74d4b022dec766aa51a29a>@@AEAV<lambda_628dfdc04ba53c8bfc02c9951375f3f5>@@V<lambda_f6c7be5f7998530c34de24c7437d6b54>@@@?$__crt_seh_guarded_call@H@@QEAAH$$QEAV<lambda_751a882b2c74d4b022dec766aa51a29a>@@AEAV<lambda_628dfdc04ba53c8bfc02c9951375f3f5>@@$$QEAV<lambda_f6c7be5f7998530c34de24c7437d6b54>@@@Z 000000018001fd74     libucrt:close.obj
 0002:00009d98       $unwind$__acrt_fenv_set_control 000000018001fd98     libucrt:_fenvutils.obj
 0002:00009da8       $unwind$_call_matherr      000000018001fda8     libucrt:libm_error.obj
 0002:00009db0       $unwind$_handle_error      000000018001fdb0     libucrt:libm_error.obj
 0002:00009dd0       $unwind$__acrt_initialize_fma3 000000018001fdd0     libucrt:fma3_available.obj
 0002:00009dd8       $unwind$_log_special_common 000000018001fdd8     libucrt:log_special.obj
 0002:00009de8       $xdatasym                  000000018001fde8     libucrt:fpsr.obj
 0002:00009df0       $unwind$_raise_exc_ex      000000018001fdf0     libucrt:fpexcept.obj
 0002:00009e04       $unwind$_ctrlfp            000000018001fe04     libucrt:fpctrl.obj
 0002:00009e2c       $unwind$?DloadObtainSection@@YAPEAXPEAK0@Z 000000018001fe2c     DelayImp:delayhlp.obj
 0002:00009e3c       $unwind$?DloadMakePermanentImageCommit@@YAXPEAX_K@Z 000000018001fe3c     DelayImp:delayhlp.obj
 0002:00009e48       $unwind$?DloadProtectSection@@YAXKPEAK@Z 000000018001fe48     DelayImp:delayhlp.obj
 0002:00009e58       $unwind$__delayLoadHelper2 000000018001fe58     DelayImp:delayhlp.obj
 0002:00009e70       $unwind$_IsNonwritableInCurrentImage 000000018001fe70     LIBCMT:pesect.obj
 0002:00009e98       $xdatasym                  000000018001fe98     LIBCMT:chkstk.obj
 0002:00009ea0       $xdatasym                  000000018001fea0     libvcruntime:memcmp.obj
 0002:00009ea4       $unwind$strrchr            000000018001fea4     libvcruntime:strrchr.obj
 0002:0000ad60       .edata                     0000000180020d60     bufferutil.exp
 0002:0000ad88       rgpv                       0000000180020d88     bufferutil.exp
 0002:0000ad8c       rgszName                   0000000180020d8c     bufferutil.exp
 0002:0000ad90       rgwOrd                     0000000180020d90     bufferutil.exp
 0002:0000ad92       szName                     0000000180020d92     bufferutil.exp
 0002:0000ada2       $N00001                    0000000180020da2     bufferutil.exp
 0002:0000b04c       .idata$6                   000000018002104c     kernel32:KERNEL32.dll
 0003:00000030       ?__vcrt_flsindex@@3KA      0000000180022030     libvcruntime:per_thread_data.obj
 0003:00000044       ?errno_no_memory@@3HA      0000000180022044     libucrt:errno.obj
 0003:00000048       ?doserrno_no_memory@@3KA   0000000180022048     libucrt:errno.obj
 0003:00000158       ?__acrt_flsindex@@3KA      0000000180022158     libucrt:per_thread_data.obj
 0003:000002d0       _mbctypes                  00000001800222d0     libucrt:mbctype.obj
 0003:000003e0       _mbcasemaps                00000001800223e0     libucrt:mbctype.obj
 0003:000004e0       ?__rgctypeflag@@3PADA      00000001800224e0     libucrt:mbctype.obj
 0003:000004f0       ?__rgcode_page_info@@3PAUcode_page_info@@A 00000001800224f0     libucrt:mbctype.obj
 0003:00000a10       ?__dcrt_lowio_console_output_handle@@3PEAXEA 0000000180022a10     libucrt:initcon.obj
 0003:00000a20       ?dazSupported@?1??_ctrlfp@@9@9 0000000180022a20     libucrt:fpctrl.obj
 0003:00000a40       _module                    0000000180022a40     bufferutil.obj
 0003:00000c68       ?__proc_attached@@3HA      0000000180022c68     LIBCMT:dll_dllmain.obj
 0003:00000c70       GS_ExceptionRecord         0000000180022c70     LIBCMT:gs_report.obj
 0003:00000d10       GS_ContextRecord           0000000180022d10     LIBCMT:gs_report.obj
 0003:00001210       ?is_initialized_as_dll@@3_NA 0000000180023210     LIBCMT:utility.obj
 0003:00001211       ?module_local_atexit_table_initialized@@3_NA 0000000180023211     LIBCMT:utility.obj
 0003:00001218       ?module_local_atexit_table@@3U_onexit_table_t@@A 0000000180023218     LIBCMT:utility.obj
 0003:00001230       ?module_local_at_quick_exit_table@@3U_onexit_table_t@@A 0000000180023230     LIBCMT:utility.obj
 0003:00001298       ?heap@@3V_HeapManager@@A   0000000180023298     libvcruntime:undname.obj
 0003:000012c0       ?__vcrt_startup_thread_ptd@@3U__vcrt_ptd@@A 00000001800232c0     libvcruntime:per_thread_data.obj
 0003:00001350       __vcrt_lock_table          0000000180023350     libvcruntime:locks.obj
 0003:00001378       __vcrt_locks_initialized   0000000180023378     libvcruntime:locks.obj
 0003:00001380       ?module_handles@@3PAPEAUHINSTANCE__@@A 0000000180023380     libvcruntime:winapi_downlevel.obj
 0003:00001398       ?encoded_function_pointers@@3PAPEAXA 0000000180023398     libvcruntime:winapi_downlevel.obj
 0003:000013c8       ?__acrt_new_handler@@3V?$dual_state_global@P6AH_K@Z@__crt_state_management@@A 00000001800233c8     libucrt:new_handler.obj
 0003:000013d0       ?c_termination_complete@@3JA 00000001800233d0     libucrt:exit.obj
 0003:000013d8       ?thread_local_exit_callback_func@@3P6AXPEAXK0@ZEA 00000001800233d8     libucrt:exit.obj
 0003:000013f0       ?program_name@?1???$common_configure_argv@D@@YAHW4_crt_argv_mode@@@Z@4PADA 00000001800233f0     libucrt:argv_parsing.obj
 0003:00001548       ?__acrt_invalid_parameter_handler@@3V?$dual_state_global@P6AXPEB_W00I_K@Z@__crt_state_management@@A 0000000180023548     libucrt:invalid_parameter.obj
 0003:00001550       ?__acrt_app_type@@3W4_crt_app_type@@A 0000000180023550     libucrt:report_runtime_error.obj
 0003:00001554       __acrt_error_mode          0000000180023554     libucrt:set_error_mode.obj
 0003:00001570       ?ctrlc_action@@3V?$dual_state_global@P6AXH@Z@__crt_state_management@@A 0000000180023570     libucrt:signal.obj
 0003:00001578       ?ctrlbreak_action@@3V?$dual_state_global@P6AXH@Z@__crt_state_management@@A 0000000180023578     libucrt:signal.obj
 0003:00001580       ?abort_action@@3V?$dual_state_global@P6AXH@Z@__crt_state_management@@A 0000000180023580     libucrt:signal.obj
 0003:00001588       ?term_action@@3V?$dual_state_global@P6AXH@Z@__crt_state_management@@A 0000000180023588     libucrt:signal.obj
 0003:000015a0       ?__acrt_lock_table@@3PAU_RTL_CRITICAL_SECTION@@A 00000001800235a0     libucrt:locks.obj
 0003:000017d0       ?__acrt_locks_initialized@@3IA 00000001800237d0     libucrt:locks.obj
 0003:000017d4       ?state_cache@?1???$get_cached_win_policy@Udeveloper_information_policy_properties@?1??__acrt_get_developer_information_policy@@YA?AW4developer_information_policy@@XZ@@@YA?AW4developer_information_policy@@W4AppPolicyShowDeveloperDiagnostic@@@Z@4JA 00000001800237d4     libucrt:win_policies.obj
 0003:000017d8       ?state_cache@?1???$get_cached_win_policy@Uwindowing_model_policy_properties@?1??__acrt_get_windowing_model_policy@@YA?AW4windowing_model_policy@@XZ@@@YA?AW4windowing_model_policy@@W4AppPolicyWindowingModel@@@Z@4JA 00000001800237d8     libucrt:win_policies.obj
 0003:000017f8       ?fSystemSet@@3HA           00000001800237f8     libucrt:mbctype.obj
 0003:000017fc       ?initialized@?1??__acrt_initialize_multibyte@@9@4_NA 00000001800237fc     libucrt:mbctype.obj
 0003:00001830       ?module_handles@@3PAPEAUHINSTANCE__@@A 0000000180023830     libucrt:winapi_thunks.obj
 0003:000018d0       ?encoded_function_pointers@@3PAPEAXA 00000001800238d0     libucrt:winapi_thunks.obj
 0003:00001df8       ?user_matherr@@3V?$dual_state_global@P6AHPEAU_exception@@@Z@__crt_state_management@@A 0000000180023df8     libucrt:matherr.obj
 0003:00001e10       ?internal_state@?1??_mbtowc_l@@9@4U_Mbstatet@@A 0000000180023e10     libucrt:mbtowc.obj
 0003:00001e18       ?enable_percent_n@@3_KA    0000000180023e18     libucrt:printf_count_output.obj
 0003:00001e28       ?__acrt_global_new_mode@@3V?$dual_state_global@J@__crt_state_management@@A 0000000180023e28     libucrt:new_mode.obj
 0003:00001e30       ?internal_pst@?1??__mbrtoc32_utf8@__crt_mbstring@@YA_KPEA_UPEBD_KPEAU_Mbstatet@@@Z@4U3@A 0000000180023e30     libucrt:mbrtoc32.obj
 0004:00000000       $pdata$?Ref@ObjectWrap@node@@MEAAXXZ 0000000180024000     bufferutil.obj
 0004:0000000c       $pdata$?Unref@ObjectWrap@node@@MEAAXXZ 000000018002400c     bufferutil.obj
 0004:00000018       $pdata$?WeakCallback@ObjectWrap@node@@CAXAEBV?$WeakCallbackInfo@VObjectWrap@node@@@v8@@@Z 0000000180024018     bufferutil.obj
 0004:00000024       $pdata$??_GObjectWrap@node@@UEAAPEAXI@Z 0000000180024024     bufferutil.obj
 0004:00000024       $pdata$??_GBufferUtil@@UEAAPEAXI@Z 0000000180024024     bufferutil.obj
 0004:00000030       $pdata$?FunctionCallbackWrapper@imp@Nan@@YAXAEBV?$FunctionCallbackInfo@VValue@v8@@@v8@@@Z 0000000180024030     bufferutil.obj
 0004:0000003c       $pdata$?Initialize@BufferUtil@@SAXV?$Local@VObject@v8@@@v8@@@Z 000000018002403c     bufferutil.obj
 0004:00000048       $pdata$?New@BufferUtil@@KAXAEBV?$FunctionCallbackInfo@VValue@v8@@@Nan@@@Z 0000000180024048     bufferutil.obj
 0004:00000054       $pdata$?Merge@BufferUtil@@KAXAEBV?$FunctionCallbackInfo@VValue@v8@@@Nan@@@Z 0000000180024054     bufferutil.obj
 0004:00000060       $pdata$?Unmask@BufferUtil@@KAXAEBV?$FunctionCallbackInfo@VValue@v8@@@Nan@@@Z 0000000180024060     bufferutil.obj
 0004:0000006c       $pdata$?Mask@BufferUtil@@KAXAEBV?$FunctionCallbackInfo@VValue@v8@@@Nan@@@Z 000000018002406c     bufferutil.obj
 0004:00000078       $pdata$?init@@YAXV?$Local@VObject@v8@@@v8@@@Z 0000000180024078     bufferutil.obj
 0004:00000084       $pdata$??$New@VFunctionTemplate@v8@@@Nan@@YA?AV?$Local@VFunctionTemplate@v8@@@v8@@P6AXAEBV?$FunctionCallbackInfo@VValue@v8@@@0@@ZV?$Local@VValue@v8@@@2@@Z 0000000180024084     bufferutil.obj
 0004:00000090       $pdata$0$??$New@VFunctionTemplate@v8@@@Nan@@YA?AV?$Local@VFunctionTemplate@v8@@@v8@@P6AXAEBV?$FunctionCallbackInfo@VValue@v8@@@0@@ZV?$Local@VValue@v8@@@2@@Z 0000000180024090     bufferutil.obj
 0004:0000009c       $pdata$1$??$New@VFunctionTemplate@v8@@@Nan@@YA?AV?$Local@VFunctionTemplate@v8@@@v8@@P6AXAEBV?$FunctionCallbackInfo@VValue@v8@@@0@@ZV?$Local@VValue@v8@@@2@@Z 000000018002409c     bufferutil.obj
 0004:000000a8       $pdata$2$??$New@VFunctionTemplate@v8@@@Nan@@YA?AV?$Local@VFunctionTemplate@v8@@@v8@@P6AXAEBV?$FunctionCallbackInfo@VValue@v8@@@0@@ZV?$Local@VValue@v8@@@2@@Z 00000001800240a8     bufferutil.obj
 0004:000000b4       $pdata$3$??$New@VFunctionTemplate@v8@@@Nan@@YA?AV?$Local@VFunctionTemplate@v8@@@v8@@P6AXAEBV?$FunctionCallbackInfo@VValue@v8@@@0@@ZV?$Local@VValue@v8@@@2@@Z 00000001800240b4     bufferutil.obj
 0004:000000c0       $pdata$?load_exe_hook@@YAP6A_JXZIPEAUDelayLoadInfo@@@Z 00000001800240c0     win_delay_load_hook.obj
 0004:000000e4       $pdata$??2@YAPEAX_K@Z      00000001800240e4     LIBCMT:new_scalar.obj
 0004:000000f0       $pdata$?dllmain_crt_dispatch@@YAHQEAUHINSTANCE__@@KQEAX@Z 00000001800240f0     LIBCMT:dll_dllmain.obj
 0004:000000fc       $pdata$?dllmain_crt_process_attach@@YAHQEAUHINSTANCE__@@QEAX@Z 00000001800240fc     LIBCMT:dll_dllmain.obj
 0004:00000108       $pdata$?dllmain_crt_process_detach@@YAH_N@Z 0000000180024108     LIBCMT:dll_dllmain.obj
 0004:00000114       $pdata$?dllmain_dispatch@@YAHQEAUHINSTANCE__@@KQEAX@Z 0000000180024114     LIBCMT:dll_dllmain.obj
 0004:00000120       $pdata$_DllMainCRTStartup  0000000180024120     LIBCMT:dll_dllmain.obj
 0004:0000012c       $pdata$__raise_securityfailure 000000018002412c     LIBCMT:gs_report.obj
 0004:00000138       $pdata$__report_gsfailure  0000000180024138     LIBCMT:gs_report.obj
 0004:00000144       $pdata$__report_rangecheckfailure 0000000180024144     LIBCMT:gs_report.obj
 0004:00000150       $pdata$__report_securityfailure 0000000180024150     LIBCMT:gs_report.obj
 0004:0000015c       $pdata$capture_current_context 000000018002415c     LIBCMT:gs_report.obj
 0004:00000168       $pdata$capture_previous_context 0000000180024168     LIBCMT:gs_report.obj
 0004:00000174       $pdata$??0bad_alloc@std@@QEAA@AEBV01@@Z 0000000180024174     LIBCMT:throw_bad_alloc.obj
 0004:00000180       $pdata$??0bad_array_new_length@std@@QEAA@AEBV01@@Z 0000000180024180     LIBCMT:throw_bad_alloc.obj
 0004:0000018c       $pdata$??0exception@std@@QEAA@AEBV01@@Z 000000018002418c     LIBCMT:throw_bad_alloc.obj
 0004:00000198       $pdata$??_Gexception@std@@UEAAPEAXI@Z 0000000180024198     LIBCMT:throw_bad_alloc.obj
 0004:00000198       $pdata$??_Gbad_alloc@std@@UEAAPEAXI@Z 0000000180024198     LIBCMT:throw_bad_alloc.obj
 0004:00000198       $pdata$??_Gbad_array_new_length@std@@UEAAPEAXI@Z 0000000180024198     LIBCMT:throw_bad_alloc.obj
 0004:000001a4       $pdata$?__scrt_throw_std_bad_alloc@@YAXXZ 00000001800241a4     LIBCMT:throw_bad_alloc.obj
 0004:000001b0       $pdata$?__scrt_throw_std_bad_array_new_length@@YAXXZ 00000001800241b0     LIBCMT:throw_bad_alloc.obj
 0004:000001bc       $pdata$__security_init_cookie 00000001800241bc     LIBCMT:gs_support.obj
 0004:000001c8       $pdata$__scrt_initialize_default_local_stdio_options 00000001800241c8     LIBCMT:default_local_stdio_options.obj
 0004:000001d4       $pdata$__scrt_acquire_startup_lock 00000001800241d4     LIBCMT:utility.obj
 0004:000001e0       $pdata$__scrt_dllmain_after_initialize_c 00000001800241e0     LIBCMT:utility.obj
 0004:000001ec       $pdata$__scrt_dllmain_before_initialize_c 00000001800241ec     LIBCMT:utility.obj
 0004:000001f8       $pdata$__scrt_dllmain_crt_thread_attach 00000001800241f8     LIBCMT:utility.obj
 0004:00000204       $pdata$__scrt_dllmain_crt_thread_detach 0000000180024204     LIBCMT:utility.obj
 0004:00000210       $pdata$__scrt_dllmain_exception_filter 0000000180024210     LIBCMT:utility.obj
 0004:0000021c       $pdata$__scrt_dllmain_uninitialize_c 000000018002421c     LIBCMT:utility.obj
 0004:00000228       $pdata$__scrt_dllmain_uninitialize_critical 0000000180024228     LIBCMT:utility.obj
 0004:00000234       $pdata$__scrt_initialize_crt 0000000180024234     LIBCMT:utility.obj
 0004:00000240       $pdata$__scrt_initialize_onexit_tables 0000000180024240     LIBCMT:utility.obj
 0004:0000024c       $pdata$__scrt_is_nonwritable_in_current_image 000000018002424c     LIBCMT:utility.obj
 0004:00000258       $pdata$__scrt_release_startup_lock 0000000180024258     LIBCMT:utility.obj
 0004:00000264       $pdata$__scrt_uninitialize_crt 0000000180024264     LIBCMT:utility.obj
 0004:00000270       $pdata$__scrt_fastfail     0000000180024270     LIBCMT:utility_desktop.obj
 0004:0000027c       $pdata$_RTC_Initialize     000000018002427c     LIBCMT:initsect.obj
 0004:00000288       $pdata$_RTC_Terminate      0000000180024288     LIBCMT:initsect.obj
 0004:00000294       $pdata$??_Gtype_info@@UEAAPEAXI@Z 0000000180024294     LIBCMT:std_type_info_static.obj
 0004:000002a0       $pdata$__isa_available_init 00000001800242a0     LIBCMT:cpu_disp.obj
 0004:000002ac       $pdata$__C_specific_handler 00000001800242ac     libvcruntime:riscchandler.obj
 0004:000002b8       $pdata$__std_exception_copy 00000001800242b8     libvcruntime:std_exception.obj
 0004:000002c4       $pdata$__std_exception_destroy 00000001800242c4     libvcruntime:std_exception.obj
 0004:000002d0       $pdata$_CxxThrowException  00000001800242d0     libvcruntime:throw.obj
 0004:000002dc       $pdata$__std_type_info_destroy_list 00000001800242dc     libvcruntime:std_type_info.obj
 0004:000002e8       $pdata$__vcrt_initialize   00000001800242e8     libvcruntime:initialization.obj
 0004:000002f4       $pdata$__vcrt_thread_attach 00000001800242f4     libvcruntime:initialization.obj
 0004:00000300       $pdata$__vcrt_thread_detach 0000000180024300     libvcruntime:initialization.obj
 0004:0000030c       $pdata$__vcrt_uninitialize 000000018002430c     libvcruntime:initialization.obj
 0004:00000318       $pdata$__vcrt_uninitialize_critical 0000000180024318     libvcruntime:initialization.obj
 0004:00000360       $pdata$__DestructExceptionObject 0000000180024360     libvcruntime:ehhelpers.obj
 0004:0000036c       $pdata$__vcrt_freefls      000000018002436c     libvcruntime:per_thread_data.obj
 0004:00000378       $pdata$__vcrt_freeptd      0000000180024378     libvcruntime:per_thread_data.obj
 0004:00000384       $pdata$__vcrt_getptd_noexit 0000000180024384     libvcruntime:per_thread_data.obj
 0004:00000390       $pdata$__vcrt_initialize_ptd 0000000180024390     libvcruntime:per_thread_data.obj
 0004:0000039c       $pdata$__vcrt_uninitialize_ptd 000000018002439c     libvcruntime:per_thread_data.obj
 0004:000003a8       $pdata$__vcrt_initialize_locks 00000001800243a8     libvcruntime:locks.obj
 0004:000003b4       $pdata$__vcrt_uninitialize_locks 00000001800243b4     libvcruntime:locks.obj
 0004:000003c0       $pdata$?try_get_function@@YAPEAXW4function_id@?A0x14c33c87@@QEBDQEBW4module_id@2@2@Z 00000001800243c0     libvcruntime:winapi_downlevel.obj
 0004:000003cc       $pdata$__vcrt_FlsAlloc     00000001800243cc     libvcruntime:winapi_downlevel.obj
 0004:000003d8       $pdata$__vcrt_FlsFree      00000001800243d8     libvcruntime:winapi_downlevel.obj
 0004:000003e4       $pdata$__vcrt_FlsGetValue  00000001800243e4     libvcruntime:winapi_downlevel.obj
 0004:000003f0       $pdata$__vcrt_FlsSetValue  00000001800243f0     libvcruntime:winapi_downlevel.obj
 0004:000003fc       $pdata$__vcrt_InitializeCriticalSectionEx 00000001800243fc     libvcruntime:winapi_downlevel.obj
 0004:00000408       $pdata$__vcrt_initialize_winapi_thunks 0000000180024408     libvcruntime:winapi_downlevel.obj
 0004:00000414       $pdata$__vcrt_uninitialize_winapi_thunks 0000000180024414     libvcruntime:winapi_downlevel.obj
 0004:00000450       $pdata$??$common_assert_to_message_box@_W@@YAXQEB_W0IQEAX@Z 0000000180024450     libucrt:assert.obj
 0004:0000045c       $pdata$??$common_assert_to_message_box_build_string@_W@@YAXQEA_W_KQEB_W2IQEAX@Z 000000018002445c     libucrt:assert.obj
 0004:00000468       $pdata$??$common_assert_to_stderr@_W@@YAXQEB_W0I@Z 0000000180024468     libucrt:assert.obj
 0004:00000474       $pdata$_wassert            0000000180024474     libucrt:assert.obj
 0004:00000480       $pdata$fwprintf            0000000180024480     libucrt:assert.obj
 0004:0000048c       $pdata$swprintf            000000018002448c     libucrt:assert.obj
 0004:00000498       $pdata$??0_LocaleUpdate@@QEAA@QEAU__crt_locale_pointers@@@Z 0000000180024498     libucrt:stricmp.obj
 0004:000004a4       $pdata$_stricmp            00000001800244a4     libucrt:stricmp.obj
 0004:000004b0       $pdata$_stricmp_l          00000001800244b0     libucrt:stricmp.obj
 0004:000004bc       $pdata$_callnewh           00000001800244bc     libucrt:new_handler.obj
 0004:000004c8       $pdata$_query_new_handler  00000001800244c8     libucrt:new_handler.obj
 0004:000004d4       $pdata$_initterm           00000001800244d4     libucrt:initterm.obj
 0004:000004e0       $pdata$_initterm_e         00000001800244e0     libucrt:initterm.obj
 0004:000004ec       $pdata$_seh_filter_exe     00000001800244ec     libucrt:exception_filter.obj
 0004:000004f8       $pdata$??$?RV<lambda_d80eeec6fff315bfe5c115232f3240e3>@@AEAV<lambda_6e4b09c48022b2350581041d5f6b0c4c>@@V<lambda_2358e3775559c9db80273638284d5e45>@@@?$__crt_seh_guarded_call@X@@QEAAX$$QEAV<lambda_d80eeec6fff315bfe5c115232f3240e3>@@AEAV<lambda_6e4b09c48022b2350581041d5f6b0c4c>@@$$QEAV<lambda_2358e3775559c9db80273638284d5e45>@@@Z 00000001800244f8     libucrt:exit.obj
 0004:00000504       $pdata$??R<lambda_6e4b09c48022b2350581041d5f6b0c4c>@@QEBA@XZ 0000000180024504     libucrt:exit.obj
 0004:00000510       $pdata$?common_exit@@YAXHW4_crt_exit_cleanup_mode@@W4_crt_exit_return_mode@@@Z 0000000180024510     libucrt:exit.obj
 0004:0000051c       $pdata$?exit_or_terminate_process@@YAXI@Z 000000018002451c     libucrt:exit.obj
 0004:00000528       $pdata$?try_cor_exit_process@@YAXI@Z 0000000180024528     libucrt:exit.obj
 0004:00000534       $pdata$??$parse_command_line@D@@YAXPEADPEAPEAD0PEA_K2@Z 0000000180024534     libucrt:argv_parsing.obj
 0004:00000540       $pdata$__acrt_allocate_buffer_for_argv 0000000180024540     libucrt:argv_parsing.obj
 0004:0000054c       $pdata$_configure_narrow_argv 000000018002454c     libucrt:argv_parsing.obj
 0004:00000558       $pdata$??$common_initialize_environment_nolock@D@@YAHXZ 0000000180024558     libucrt:environment_initialization.obj
 0004:00000564       $pdata$??$create_environment@D@@YAQEAPEADQEAD@Z 0000000180024564     libucrt:environment_initialization.obj
 0004:00000570       $pdata$??$free_environment@D@@YAXQEAPEAD@Z 0000000180024570     libucrt:environment_initialization.obj
 0004:00000570       $pdata$??$free_environment@_W@@YAXQEAPEA_W@Z 0000000180024570     libucrt:environment_initialization.obj
 0004:0000057c       $pdata$??$uninitialize_environment_internal@D@@YAXAEAPEAPEAD@Z 000000018002457c     libucrt:environment_initialization.obj
 0004:00000588       $pdata$??$uninitialize_environment_internal@_W@@YAXAEAPEAPEA_W@Z 0000000180024588     libucrt:environment_initialization.obj
 0004:00000594       $pdata$__dcrt_uninitialize_environments_nolock 0000000180024594     libucrt:environment_initialization.obj
 0004:000005a0       $pdata$??$?RV<lambda_7777bce6b2f8c936911f934f8298dc43>@@AEAV<lambda_f03950bc5685219e0bcd2087efbe011e>@@V<lambda_3883c3dff614d5e0c5f61bb1ac94921c>@@@?$__crt_seh_guarded_call@H@@QEAAH$$QEAV<lambda_7777bce6b2f8c936911f934f8298dc43>@@AEAV<lambda_f03950bc5685219e0bcd2087efbe011e>@@$$QEAV<lambda_3883c3dff614d5e0c5f61bb1ac94921c>@@@Z 00000001800245a0     libucrt:onexit.obj
 0004:000005ac       $pdata$??R<lambda_f03950bc5685219e0bcd2087efbe011e>@@QEBAHXZ 00000001800245ac     libucrt:onexit.obj
 0004:000005b8       $pdata$_execute_onexit_table 00000001800245b8     libucrt:onexit.obj
 0004:000005c4       $pdata$initialize_c        00000001800245c4     libucrt:initialization.obj
 0004:000005d0       $pdata$uninitialize_environment 00000001800245d0     libucrt:initialization.obj
 0004:000005dc       $pdata$initialize_pointers 00000001800245dc     libucrt:initialization.obj
 0004:000005e8       $pdata$uninitialize_allocated_memory 00000001800245e8     libucrt:initialization.obj
 0004:000005f4       $pdata$uninitialize_allocated_io_buffers 00000001800245f4     libucrt:initialization.obj
 0004:00000600       $pdata$__acrt_thread_attach 0000000180024600     libucrt:initialization.obj
 0004:0000060c       $pdata$__acrt_thread_detach 000000018002460c     libucrt:initialization.obj
 0004:00000618       $pdata$__acrt_uninitialize 0000000180024618     libucrt:initialization.obj
 0004:00000624       $pdata$__acrt_uninitialize_critical 0000000180024624     libucrt:initialization.obj
 0004:00000630       $pdata$terminate           0000000180024630     libucrt:terminate.obj
 0004:0000063c       $pdata$strcpy_s            000000018002463c     libucrt:strcpy_s.obj
 0004:00000648       $pdata$??$?RV<lambda_0d412022a4b28cc8a401ea49574e8ae6>@@AEAV<lambda_a775ed57af18ba8e4d5dc780aa9068fe>@@V<lambda_975a71a6baa488a08f4e15f6b0339b9e>@@@?$__crt_seh_guarded_call@H@@QEAAH$$QEAV<lambda_0d412022a4b28cc8a401ea49574e8ae6>@@AEAV<lambda_a775ed57af18ba8e4d5dc780aa9068fe>@@$$QEAV<lambda_975a71a6baa488a08f4e15f6b0339b9e>@@@Z 0000000180024648     libucrt:output.obj
 0004:00000654       $pdata$??$common_vsprintf@Vstandard_base@__crt_stdio_output@@_W@@YAH_KQEA_W0QEB_WQEAU__crt_locale_pointers@@QEAD@Z 0000000180024654     libucrt:output.obj
 0004:00000660       $pdata$??$ensure_buffer_is_big_enough@D@formatting_buffer@__crt_stdio_output@@QEAA_N_K@Z 0000000180024660     libucrt:output.obj
 0004:0000066c       $pdata$??$ensure_buffer_is_big_enough@_W@formatting_buffer@__crt_stdio_output@@QEAA_N_K@Z 000000018002466c     libucrt:output.obj
 0004:00000678       $pdata$??$type_case_integer_parse_into_buffer@I@?$output_processor@_WV?$stream_output_adapter@_W@__crt_stdio_output@@V?$standard_base@_WV?$stream_output_adapter@_W@__crt_stdio_output@@@2@@__crt_stdio_output@@AEAAXII_N@Z 0000000180024678     libucrt:output.obj
 0004:00000678       $pdata$??$type_case_integer_parse_into_buffer@I@?$output_processor@_WV?$string_output_adapter@_W@__crt_stdio_output@@V?$standard_base@_WV?$string_output_adapter@_W@__crt_stdio_output@@@2@@__crt_stdio_output@@AEAAXII_N@Z 0000000180024678     libucrt:output.obj
 0004:00000684       $pdata$??$type_case_integer_parse_into_buffer@_K@?$output_processor@_WV?$stream_output_adapter@_W@__crt_stdio_output@@V?$standard_base@_WV?$stream_output_adapter@_W@__crt_stdio_output@@@2@@__crt_stdio_output@@AEAAX_KI_N@Z 0000000180024684     libucrt:output.obj
 0004:00000684       $pdata$??$type_case_integer_parse_into_buffer@_K@?$output_processor@_WV?$string_output_adapter@_W@__crt_stdio_output@@V?$standard_base@_WV?$string_output_adapter@_W@__crt_stdio_output@@@2@@__crt_stdio_output@@AEAAX_KI_N@Z 0000000180024684     libucrt:output.obj
 0004:00000690       $pdata$??$write_multiple_characters@V?$stream_output_adapter@_W@__crt_stdio_output@@D@__crt_stdio_output@@YAXAEBV?$stream_output_adapter@_W@0@DHQEAH@Z 0000000180024690     libucrt:output.obj
 0004:0000069c       $pdata$??$write_multiple_characters@V?$string_output_adapter@_W@__crt_stdio_output@@D@__crt_stdio_output@@YAXAEBV?$string_output_adapter@_W@0@DHQEAH@Z 000000018002469c     libucrt:output.obj
 0004:000006a8       $pdata$??R<lambda_a775ed57af18ba8e4d5dc780aa9068fe>@@QEBAHXZ 00000001800246a8     libucrt:output.obj
 0004:000006b4       $pdata$?force_decimal_point@__crt_stdio_output@@YAXPEADQEAU__crt_locale_pointers@@@Z 00000001800246b4     libucrt:output.obj
 0004:000006c0       $pdata$?parse_int_from_format_string@?$output_processor@_WV?$string_output_adapter@_W@__crt_stdio_output@@V?$standard_base@_WV?$string_output_adapter@_W@__crt_stdio_output@@@2@@__crt_stdio_output@@AEAA_NQEAH@Z 00000001800246c0     libucrt:output.obj
 0004:000006c0       $pdata$?parse_int_from_format_string@?$output_processor@_WV?$stream_output_adapter@_W@__crt_stdio_output@@V?$standard_base@_WV?$stream_output_adapter@_W@__crt_stdio_output@@@2@@__crt_stdio_output@@AEAA_NQEAH@Z 00000001800246c0     libucrt:output.obj
 0004:000006cc       $pdata$?process@?$output_processor@_WV?$stream_output_adapter@_W@__crt_stdio_output@@V?$standard_base@_WV?$stream_output_adapter@_W@__crt_stdio_output@@@2@@__crt_stdio_output@@QEAAHXZ 00000001800246cc     libucrt:output.obj
 0004:000006d8       $pdata$?process@?$output_processor@_WV?$string_output_adapter@_W@__crt_stdio_output@@V?$standard_base@_WV?$string_output_adapter@_W@__crt_stdio_output@@@2@@__crt_stdio_output@@QEAAHXZ 00000001800246d8     libucrt:output.obj
 0004:000006e4       $pdata$?state_case_size@?$output_processor@_WV?$stream_output_adapter@_W@__crt_stdio_output@@V?$standard_base@_WV?$stream_output_adapter@_W@__crt_stdio_output@@@2@@__crt_stdio_output@@AEAA_NXZ 00000001800246e4     libucrt:output.obj
 0004:000006f0       $pdata$?state_case_size@?$output_processor@_WV?$string_output_adapter@_W@__crt_stdio_output@@V?$standard_base@_WV?$string_output_adapter@_W@__crt_stdio_output@@@2@@__crt_stdio_output@@AEAA_NXZ 00000001800246f0     libucrt:output.obj
 0004:000006fc       $pdata$?state_case_type@?$output_processor@_WV?$stream_output_adapter@_W@__crt_stdio_output@@V?$standard_base@_WV?$stream_output_adapter@_W@__crt_stdio_output@@@2@@__crt_stdio_output@@AEAA_NXZ 00000001800246fc     libucrt:output.obj
 0004:00000708       $pdata$?state_case_type@?$output_processor@_WV?$string_output_adapter@_W@__crt_stdio_output@@V?$standard_base@_WV?$string_output_adapter@_W@__crt_stdio_output@@@2@@__crt_stdio_output@@AEAA_NXZ 0000000180024708     libucrt:output.obj
 0004:00000714       $pdata$?type_case_Z@?$output_processor@_WV?$stream_output_adapter@_W@__crt_stdio_output@@V?$standard_base@_WV?$stream_output_adapter@_W@__crt_stdio_output@@@2@@__crt_stdio_output@@AEAA_NXZ 0000000180024714     libucrt:output.obj
 0004:00000714       $pdata$?type_case_Z@?$output_processor@_WV?$string_output_adapter@_W@__crt_stdio_output@@V?$standard_base@_WV?$string_output_adapter@_W@__crt_stdio_output@@@2@@__crt_stdio_output@@AEAA_NXZ 0000000180024714     libucrt:output.obj
 0004:00000720       $pdata$?type_case_a@?$output_processor@_WV?$stream_output_adapter@_W@__crt_stdio_output@@V?$standard_base@_WV?$stream_output_adapter@_W@__crt_stdio_output@@@2@@__crt_stdio_output@@AEAA_NXZ 0000000180024720     libucrt:output.obj
 0004:00000720       $pdata$?type_case_a@?$output_processor@_WV?$string_output_adapter@_W@__crt_stdio_output@@V?$standard_base@_WV?$string_output_adapter@_W@__crt_stdio_output@@@2@@__crt_stdio_output@@AEAA_NXZ 0000000180024720     libucrt:output.obj
 0004:0000072c       $pdata$?type_case_c_tchar@?$output_processor@_WV?$stream_output_adapter@_W@__crt_stdio_output@@V?$standard_base@_WV?$stream_output_adapter@_W@__crt_stdio_output@@@2@@__crt_stdio_output@@AEAA_N_W@Z 000000018002472c     libucrt:output.obj
 0004:0000072c       $pdata$?type_case_c_tchar@?$output_processor@_WV?$string_output_adapter@_W@__crt_stdio_output@@V?$standard_base@_WV?$string_output_adapter@_W@__crt_stdio_output@@@2@@__crt_stdio_output@@AEAA_N_W@Z 000000018002472c     libucrt:output.obj
 0004:00000738       $pdata$?type_case_integer@?$output_processor@_WV?$string_output_adapter@_W@__crt_stdio_output@@V?$standard_base@_WV?$string_output_adapter@_W@__crt_stdio_output@@@2@@__crt_stdio_output@@AEAA_NI_N@Z 0000000180024738     libucrt:output.obj
 0004:00000738       $pdata$?type_case_integer@?$output_processor@_WV?$stream_output_adapter@_W@__crt_stdio_output@@V?$standard_base@_WV?$stream_output_adapter@_W@__crt_stdio_output@@@2@@__crt_stdio_output@@AEAA_NI_N@Z 0000000180024738     libucrt:output.obj
 0004:00000744       $pdata$?type_case_n@?$output_processor@_WV?$stream_output_adapter@_W@__crt_stdio_output@@V?$standard_base@_WV?$stream_output_adapter@_W@__crt_stdio_output@@@2@@__crt_stdio_output@@AEAA_NXZ 0000000180024744     libucrt:output.obj
 0004:00000744       $pdata$?type_case_n@?$output_processor@_WV?$string_output_adapter@_W@__crt_stdio_output@@V?$standard_base@_WV?$string_output_adapter@_W@__crt_stdio_output@@@2@@__crt_stdio_output@@AEAA_NXZ 0000000180024744     libucrt:output.obj
 0004:00000750       $pdata$?type_case_s@?$output_processor@_WV?$stream_output_adapter@_W@__crt_stdio_output@@V?$standard_base@_WV?$stream_output_adapter@_W@__crt_stdio_output@@@2@@__crt_stdio_output@@AEAA_NXZ 0000000180024750     libucrt:output.obj
 0004:00000750       $pdata$?type_case_s@?$output_processor@_WV?$string_output_adapter@_W@__crt_stdio_output@@V?$standard_base@_WV?$string_output_adapter@_W@__crt_stdio_output@@@2@@__crt_stdio_output@@AEAA_NXZ 0000000180024750     libucrt:output.obj
 0004:0000075c       $pdata$?write_stored_string_tchar@?$output_processor@_WV?$stream_output_adapter@_W@__crt_stdio_output@@V?$standard_base@_WV?$stream_output_adapter@_W@__crt_stdio_output@@@2@@__crt_stdio_output@@AEAA_N_W@Z 000000018002475c     libucrt:output.obj
 0004:00000768       $pdata$?write_stored_string_tchar@?$output_processor@_WV?$string_output_adapter@_W@__crt_stdio_output@@V?$standard_base@_WV?$string_output_adapter@_W@__crt_stdio_output@@@2@@__crt_stdio_output@@AEAA_N_W@Z 0000000180024768     libucrt:output.obj
 0004:00000774       $pdata$?write_string@?$string_output_adapter@_W@__crt_stdio_output@@QEBAXQEB_WHQEAHAEAV__crt_deferred_errno_cache@@@Z 0000000180024774     libucrt:output.obj
 0004:00000780       $pdata$?write_string_impl@?$output_adapter_common@_WV?$stream_output_adapter@_W@__crt_stdio_output@@@__crt_stdio_output@@IEBAXQEB_WHQEAHAEAV__crt_deferred_errno_cache@@@Z 0000000180024780     libucrt:output.obj
 0004:0000078c       $pdata$__stdio_common_vfwprintf 000000018002478c     libucrt:output.obj
 0004:00000798       $pdata$??$parse_integer@KV?$c_string_character_source@_W@__crt_strtox@@@__crt_strtox@@YAKQEAU__crt_locale_pointers@@V?$c_string_character_source@_W@0@H_N@Z 0000000180024798     libucrt:atox.obj
 0004:000007b0       $pdata$abort               00000001800247b0     libucrt:abort.obj
 0004:000007bc       $pdata$__acrt_call_reportfault 00000001800247bc     libucrt:invalid_parameter.obj
 0004:000007c8       $pdata$_invalid_parameter  00000001800247c8     libucrt:invalid_parameter.obj
 0004:000007d4       $pdata$_invalid_parameter_noinfo 00000001800247d4     libucrt:invalid_parameter.obj
 0004:000007e0       $pdata$_invoke_watson      00000001800247e0     libucrt:invalid_parameter.obj
 0004:000007ec       $pdata$__acrt_errno_map_os_error 00000001800247ec     libucrt:errno.obj
 0004:000007f8       $pdata$__doserrno          00000001800247f8     libucrt:errno.obj
 0004:00000804       $pdata$_errno              0000000180024804     libucrt:errno.obj
 0004:00000810       $pdata$??$common_xtox@K_W@@YAHKQEA_W_KI_N@Z 0000000180024810     libucrt:xtoa.obj
 0004:0000081c       $pdata$??$common_xtox_s@K_W@@YAHKQEA_W_KI_N@Z 000000018002481c     libucrt:xtoa.obj
 0004:00000828       $pdata$_itow_s             0000000180024828     libucrt:xtoa.obj
 0004:00000834       $pdata$_set_error_mode     0000000180024834     libucrt:set_error_mode.obj
 0004:00000840       $pdata$wcscat_s            0000000180024840     libucrt:wcscat_s.obj
 0004:0000084c       $pdata$wcscpy_s            000000018002484c     libucrt:wcscpy_s.obj
 0004:00000858       $pdata$wcsncat_s           0000000180024858     libucrt:wcsncat_s.obj
 0004:00000864       $pdata$??$__acrt_wcs_to_mbs_cp@U__crt_win32_buffer_no_resizing@@@@YAHQEB_WAEAV?$__crt_win32_buffer@DU__crt_win32_buffer_no_resizing@@@@I@Z 0000000180024864     libucrt:getmodulefilenamea.obj
 0004:00000870       $pdata$__acrt_GetModuleFileNameA 0000000180024870     libucrt:getmodulefilenamea.obj
 0004:0000087c       $pdata$__acrt_show_wide_message_box 000000018002487c     libucrt:crtmbox.obj
 0004:00000888       $pdata$__acrt_initialize_stdio 0000000180024888     libucrt:_file.obj
 0004:00000894       $pdata$__acrt_uninitialize_stdio 0000000180024894     libucrt:_file.obj
 0004:000008a0       $pdata$??$?RV<lambda_842d9ff0dc9ef11c61343bbaebe7f885>@@AEAV<lambda_c5860995281e5c4ce005b3de8f5874ee>@@V<lambda_d90129c13df834fdcbf8d2b88dafcf2d>@@@?$__crt_seh_guarded_call@X@@QEAAX$$QEAV<lambda_842d9ff0dc9ef11c61343bbaebe7f885>@@AEAV<lambda_c5860995281e5c4ce005b3de8f5874ee>@@$$QEAV<lambda_d90129c13df834fdcbf8d2b88dafcf2d>@@@Z 00000001800248a0     libucrt:fflush.obj
 0004:000008ac       $pdata$??$?RV<lambda_886d6c58226a84441f68b9f2b8217b83>@@AEAV<lambda_ab61a845afdef5b7c387490eaf3616ee>@@V<lambda_f7f22ab5edc0698d5f6905b0d3f44752>@@@?$__crt_seh_guarded_call@X@@QEAAX$$QEAV<lambda_886d6c58226a84441f68b9f2b8217b83>@@AEAV<lambda_ab61a845afdef5b7c387490eaf3616ee>@@$$QEAV<lambda_f7f22ab5edc0698d5f6905b0d3f44752>@@@Z 00000001800248ac     libucrt:fflush.obj
 0004:000008b8       $pdata$??$?RV<lambda_c376a267cfb53b6959b3b692ec76b120>@@AEAV<lambda_9a32fed5bf61b6b509b2d3f6003082a1>@@V<lambda_572fbb9fa0ab338edf41edfd4b5fcc8d>@@@?$__crt_seh_guarded_call@H@@QEAAH$$QEAV<lambda_c376a267cfb53b6959b3b692ec76b120>@@AEAV<lambda_9a32fed5bf61b6b509b2d3f6003082a1>@@$$QEAV<lambda_572fbb9fa0ab338edf41edfd4b5fcc8d>@@@Z 00000001800248b8     libucrt:fflush.obj
 0004:000008c4       $pdata$?common_flush_all@@YAH_N@Z 00000001800248c4     libucrt:fflush.obj
 0004:000008d0       $pdata$__acrt_stdio_flush_nolock 00000001800248d0     libucrt:fflush.obj
 0004:000008dc       $pdata$_fflush_nolock      00000001800248dc     libucrt:fflush.obj
 0004:000008e8       $pdata$fflush              00000001800248e8     libucrt:fflush.obj
 0004:000008f4       $pdata$??$?RV<lambda_84ec643ea9557e2f7dc01bb0e9624395>@@AEAV<lambda_ca71763b3c0644891230e4f79ea54fa6>@@V<lambda_439a761618c59b0600e24586724d733b>@@@?$__crt_seh_guarded_call@H@@QEAAH$$QEAV<lambda_84ec643ea9557e2f7dc01bb0e9624395>@@AEAV<lambda_ca71763b3c0644891230e4f79ea54fa6>@@$$QEAV<lambda_439a761618c59b0600e24586724d733b>@@@Z 00000001800248f4     libucrt:setvbuf.obj
 0004:00000900       $pdata$??R<lambda_ca71763b3c0644891230e4f79ea54fa6>@@QEBAHXZ 0000000180024900     libucrt:setvbuf.obj
 0004:0000090c       $pdata$setvbuf             000000018002490c     libucrt:setvbuf.obj
 0004:00000918       $pdata$??$?RV<lambda_450d765d439847d4c735a33c368b5fc0>@@AEAV<lambda_44731a7d0e6d81c3e6aa82d741081786>@@V<lambda_601a2a7da3b7a96e9554ac7215c4b07c>@@@?$__crt_seh_guarded_call@P6AXH@Z@@QEAAP6AXH@Z$$QEAV<lambda_450d765d439847d4c735a33c368b5fc0>@@AEAV<lambda_44731a7d0e6d81c3e6aa82d741081786>@@$$QEAV<lambda_601a2a7da3b7a96e9554ac7215c4b07c>@@@Z 0000000180024918     libucrt:signal.obj
 0004:00000924       $pdata$__acrt_get_sigabrt_handler 0000000180024924     libucrt:signal.obj
 0004:00000930       $pdata$raise               0000000180024930     libucrt:signal.obj
 0004:0000093c       $pdata$?internal_isupper_l@@YA_NHQEAU__crt_locale_pointers@@@Z 000000018002493c     libucrt:tolower_toupper.obj
 0004:00000948       $pdata$_tolower_l          0000000180024948     libucrt:tolower_toupper.obj
 0004:00000954       $pdata$tolower             0000000180024954     libucrt:tolower_toupper.obj
 0004:00000960       $pdata$??$?RV<lambda_0ae27a3a962d80f24befdcbee591983d>@@AEAV<lambda_8d0ee55de4b1038c4002e0adecdf1839>@@V<lambda_dc504788e8f1664fe9b84e20bfb512f2>@@@?$__crt_seh_guarded_call@X@@QEAAX$$QEAV<lambda_0ae27a3a962d80f24befdcbee591983d>@@AEAV<lambda_8d0ee55de4b1038c4002e0adecdf1839>@@$$QEAV<lambda_dc504788e8f1664fe9b84e20bfb512f2>@@@Z 0000000180024960     libucrt:per_thread_data.obj
 0004:0000096c       $pdata$??$?RV<lambda_2d41944a1d46af3157314b8a01080d33>@@AEAV<lambda_8f455de75cd7d7f24b4096f044d8b9e6>@@V<lambda_aa500f224e6afead328df44964fe2772>@@@?$__crt_seh_guarded_call@X@@QEAAX$$QEAV<lambda_2d41944a1d46af3157314b8a01080d33>@@AEAV<lambda_8f455de75cd7d7f24b4096f044d8b9e6>@@$$QEAV<lambda_aa500f224e6afead328df44964fe2772>@@@Z 000000018002496c     libucrt:per_thread_data.obj
 0004:00000978       $pdata$??$?RV<lambda_aa87e3671a710a21b5dc78c0bdf72e11>@@AEAV<lambda_92619d2358a28f41a33ba319515a20b9>@@V<lambda_6992ecaafeb10aed2b74cb1fae11a551>@@@?$__crt_seh_guarded_call@X@@QEAAX$$QEAV<lambda_aa87e3671a710a21b5dc78c0bdf72e11>@@AEAV<lambda_92619d2358a28f41a33ba319515a20b9>@@$$QEAV<lambda_6992ecaafeb10aed2b74cb1fae11a551>@@@Z 0000000180024978     libucrt:per_thread_data.obj
 0004:00000984       $pdata$??$?RV<lambda_f2e299630e499de9f9a165e60fcd3db5>@@AEAV<lambda_2ae9d31cdba2644fcbeaf08da7c24588>@@V<lambda_40d01ff24d0e7b3814fdbdcee8eab3c7>@@@?$__crt_seh_guarded_call@X@@QEAAX$$QEAV<lambda_f2e299630e499de9f9a165e60fcd3db5>@@AEAV<lambda_2ae9d31cdba2644fcbeaf08da7c24588>@@$$QEAV<lambda_40d01ff24d0e7b3814fdbdcee8eab3c7>@@@Z 0000000180024984     libucrt:per_thread_data.obj
 0004:00000990       $pdata$?construct_ptd_array@@YAXQEAU__acrt_ptd@@@Z 0000000180024990     libucrt:per_thread_data.obj
 0004:0000099c       $pdata$?destroy_fls@@YAXPEAX@Z 000000018002499c     libucrt:per_thread_data.obj
 0004:000009a8       $pdata$?destroy_ptd_array@@YAXQEAU__acrt_ptd@@@Z 00000001800249a8     libucrt:per_thread_data.obj
 0004:000009b4       $pdata$?replace_current_thread_locale_nolock@@YAXQEAU__acrt_ptd@@QEAU__crt_locale_data@@@Z 00000001800249b4     libucrt:per_thread_data.obj
 0004:000009c0       $pdata$__acrt_freeptd      00000001800249c0     libucrt:per_thread_data.obj
 0004:000009cc       $pdata$__acrt_getptd       00000001800249cc     libucrt:per_thread_data.obj
 0004:000009d8       $pdata$__acrt_getptd_head  00000001800249d8     libucrt:per_thread_data.obj
 0004:000009e4       $pdata$__acrt_getptd_noexit 00000001800249e4     libucrt:per_thread_data.obj
 0004:000009f0       $pdata$__acrt_initialize_ptd 00000001800249f0     libucrt:per_thread_data.obj
 0004:000009fc       $pdata$__acrt_uninitialize_ptd 00000001800249fc     libucrt:per_thread_data.obj
 0004:00000a08       $pdata$__acrt_update_locale_info 0000000180024a08     libucrt:locale_update.obj
 0004:00000a14       $pdata$__acrt_update_multibyte_info 0000000180024a14     libucrt:locale_update.obj
 0004:00000a20       $pdata$??$?RV<lambda_410d79af7f07d98d83a3f525b3859a53>@@AEAV<lambda_3e16ef9562a7dcce91392c22ab16ea36>@@V<lambda_38119f0e861e05405d8a144b9b982f0a>@@@?$__crt_seh_guarded_call@X@@QEAAX$$QEAV<lambda_410d79af7f07d98d83a3f525b3859a53>@@AEAV<lambda_3e16ef9562a7dcce91392c22ab16ea36>@@$$QEAV<lambda_38119f0e861e05405d8a144b9b982f0a>@@@Z 0000000180024a20     libucrt:wsetlocale.obj
 0004:00000a2c       $pdata$__acrt_uninitialize_locale 0000000180024a2c     libucrt:wsetlocale.obj
 0004:00000a38       $pdata$__acrt_initialize_locks 0000000180024a38     libucrt:locks.obj
 0004:00000a44       $pdata$__acrt_uninitialize_locks 0000000180024a44     libucrt:locks.obj
 0004:00000a50       $pdata$_malloc_base        0000000180024a50     libucrt:malloc_base.obj
 0004:00000a5c       $pdata$_free_base          0000000180024a5c     libucrt:free_base.obj
 0004:00000a68       $pdata$__acrt_get_developer_information_policy 0000000180024a68     libucrt:win_policies.obj
 0004:00000a74       $pdata$__acrt_get_process_end_policy 0000000180024a74     libucrt:win_policies.obj
 0004:00000a80       $pdata$__acrt_get_windowing_model_policy 0000000180024a80     libucrt:win_policies.obj
 0004:00000a8c       $pdata$_calloc_base        0000000180024a8c     libucrt:calloc_base.obj
 0004:00000a98       $pdata$??$__acrt_mbs_to_wcs_cp@U__crt_win32_buffer_internal_dynamic_resizing@@@@YAHQEBDAEAV?$__crt_win32_buffer@_WU__crt_win32_buffer_internal_dynamic_resizing@@@@I@Z 0000000180024a98     libucrt:argv_wildcards.obj
 0004:00000aa4       $pdata$??$__acrt_wcs_to_mbs_cp@U__crt_win32_buffer_internal_dynamic_resizing@@@@YAHQEB_WAEAV?$__crt_win32_buffer@DU__crt_win32_buffer_internal_dynamic_resizing@@@@I@Z 0000000180024aa4     libucrt:argv_wildcards.obj
 0004:00000ab0       $pdata$??$common_expand_argv_wildcards@D@@YAHQEAPEADQEAPEAPEAD@Z 0000000180024ab0     libucrt:argv_wildcards.obj
 0004:00000abc       $pdata$??$copy_and_add_argument_to_buffer@D@@YAHQEBD0_KAEAV?$argument_list@D@?A0x5f5c8891@@@Z 0000000180024abc     libucrt:argv_wildcards.obj
 0004:00000ac8       $pdata$??$expand_argument_wildcards@D@@YAHQEAD0AEAV?$argument_list@D@?A0x5f5c8891@@@Z 0000000180024ac8     libucrt:argv_wildcards.obj
 0004:00000ad4       $pdata$??$?RV<lambda_efdfa57d1f175319df784efa44bb7b81>@@AEAV<lambda_5f0a4c1567f8adc6734073e5d1e1b35c>@@V<lambda_2e8a7d3640ea6ccb4c2413664c2db6fd>@@@?$__crt_seh_guarded_call@X@@QEAAX$$QEAV<lambda_efdfa57d1f175319df784efa44bb7b81>@@AEAV<lambda_5f0a4c1567f8adc6734073e5d1e1b35c>@@$$QEAV<lambda_2e8a7d3640ea6ccb4c2413664c2db6fd>@@@Z 0000000180024ad4     libucrt:mbctype.obj
 0004:00000ae0       $pdata$?getSystemCP@@YAHH@Z 0000000180024ae0     libucrt:mbctype.obj
 0004:00000aec       $pdata$?setSBCS@@YAXPEAU__crt_multibyte_data@@@Z 0000000180024aec     libucrt:mbctype.obj
 0004:00000af8       $pdata$?setSBUpLow@@YAXPEAU__crt_multibyte_data@@@Z 0000000180024af8     libucrt:mbctype.obj
 0004:00000b04       $pdata$?setmbcp_internal@@YAHH_NQEAU__acrt_ptd@@QEAPEAU__crt_multibyte_data@@@Z 0000000180024b04     libucrt:mbctype.obj
 0004:00000b10       $pdata$?update_thread_multibyte_data_internal@@YAPEAU__crt_multibyte_data@@QEAU__acrt_ptd@@QEAPEAU1@@Z 0000000180024b10     libucrt:mbctype.obj
 0004:00000b1c       $pdata$__acrt_initialize_multibyte 0000000180024b1c     libucrt:mbctype.obj
 0004:00000b28       $pdata$__acrt_update_thread_multibyte_data 0000000180024b28     libucrt:mbctype.obj
 0004:00000b34       $pdata$_setmbcp_nolock     0000000180024b34     libucrt:mbctype.obj
 0004:00000b40       $pdata$?x_ismbbtype_l@@YAHPEAU__crt_locale_pointers@@IHH@Z 0000000180024b40     libucrt:ismbbyte.obj
 0004:00000b4c       $pdata$__acrt_initialize_command_line 0000000180024b4c     libucrt:argv_data.obj
 0004:00000b58       $pdata$__acrt_WideCharToMultiByte 0000000180024b58     libucrt:widechartomultibyte.obj
 0004:00000b64       $pdata$__dcrt_get_narrow_environment_from_os 0000000180024b64     libucrt:get_environment_from_os.obj
 0004:00000b70       $pdata$_recalloc_base      0000000180024b70     libucrt:recalloc.obj
 0004:00000b7c       $pdata$?try_get_function@@YAPEAXW4function_id@?A0x391cf84c@@QEBDQEBW4module_id@2@2@Z 0000000180024b7c     libucrt:winapi_thunks.obj
 0004:00000b88       $pdata$__acrt_AppPolicyGetProcessTerminationMethodInternal 0000000180024b88     libucrt:winapi_thunks.obj
 0004:00000b94       $pdata$__acrt_AppPolicyGetShowDeveloperDiagnosticInternal 0000000180024b94     libucrt:winapi_thunks.obj
 0004:00000ba0       $pdata$__acrt_AppPolicyGetWindowingModelInternal 0000000180024ba0     libucrt:winapi_thunks.obj
 0004:00000bac       $pdata$__acrt_AreFileApisANSI 0000000180024bac     libucrt:winapi_thunks.obj
 0004:00000bb8       $pdata$__acrt_FlsAlloc     0000000180024bb8     libucrt:winapi_thunks.obj
 0004:00000bc4       $pdata$__acrt_FlsFree      0000000180024bc4     libucrt:winapi_thunks.obj
 0004:00000bd0       $pdata$__acrt_FlsGetValue  0000000180024bd0     libucrt:winapi_thunks.obj
 0004:00000bdc       $pdata$__acrt_FlsSetValue  0000000180024bdc     libucrt:winapi_thunks.obj
 0004:00000be8       $pdata$__acrt_InitializeCriticalSectionEx 0000000180024be8     libucrt:winapi_thunks.obj
 0004:00000bf4       $pdata$__acrt_LCMapStringEx 0000000180024bf4     libucrt:winapi_thunks.obj
 0004:00000c00       $pdata$__acrt_LocaleNameToLCID 0000000180024c00     libucrt:winapi_thunks.obj
 0004:00000c0c       $pdata$__acrt_MessageBoxW  0000000180024c0c     libucrt:winapi_thunks.obj
 0004:00000c18       $pdata$__acrt_can_show_message_box 0000000180024c18     libucrt:winapi_thunks.obj
 0004:00000c24       $pdata$__acrt_get_parent_window 0000000180024c24     libucrt:winapi_thunks.obj
 0004:00000c30       $pdata$__acrt_initialize_winapi_thunks 0000000180024c30     libucrt:winapi_thunks.obj
 0004:00000c3c       $pdata$__acrt_is_interactive 0000000180024c3c     libucrt:winapi_thunks.obj
 0004:00000c48       $pdata$__acrt_uninitialize_winapi_thunks 0000000180024c48     libucrt:winapi_thunks.obj
 0004:00000c54       $pdata$__acrt_initialize_heap 0000000180024c54     libucrt:heap_handle.obj
 0004:00000c60       $pdata$?initialize_inherited_file_handles_nolock@@YAXXZ 0000000180024c60     libucrt:ioinit.obj
 0004:00000c6c       $pdata$?initialize_stdio_handles_nolock@@YAXXZ 0000000180024c6c     libucrt:ioinit.obj
 0004:00000c78       $pdata$__acrt_initialize_lowio 0000000180024c78     libucrt:ioinit.obj
 0004:00000c84       $pdata$__acrt_uninitialize_lowio 0000000180024c84     libucrt:ioinit.obj
 0004:00000c90       $pdata$__acrt_execute_initializers 0000000180024c90     libucrt:shared_initialization.obj
 0004:00000c9c       $pdata$__acrt_execute_uninitializers 0000000180024c9c     libucrt:shared_initialization.obj
 0004:00000ca8       $pdata$__acrt_stdio_begin_temporary_buffering_nolock 0000000180024ca8     libucrt:_sftbuf.obj
 0004:00000cb4       $pdata$__acrt_stdio_end_temporary_buffering_nolock 0000000180024cb4     libucrt:_sftbuf.obj
 0004:00000cc0       $pdata$isdigit             0000000180024cc0     libucrt:_ctype.obj
 0004:00000ccc       $pdata$wcstol              0000000180024ccc     libucrt:strtox.obj
 0004:00000cd8       $pdata$_mbtowc_l           0000000180024cd8     libucrt:mbtowc.obj
 0004:00000ce4       $pdata$_wctomb_s_l         0000000180024ce4     libucrt:wctomb.obj
 0004:00000cf0       $pdata$wctomb_s            0000000180024cf0     libucrt:wctomb.obj
 0004:00000cfc       $pdata$?fp_format_a@@YAHQEBNPEAD_KQEAD2H_NIQEAU__crt_locale_pointers@@@Z 0000000180024cfc     libucrt:cvt.obj
 0004:00000d08       $pdata$?fp_format_e@@YAHQEBNQEAD_K12H_NIQEAU__crt_locale_pointers@@@Z 0000000180024d08     libucrt:cvt.obj
 0004:00000d14       $pdata$?fp_format_e_internal@@YAHQEAD_KH_NIQEAU_strflt@@2QEAU__crt_locale_pointers@@@Z 0000000180024d14     libucrt:cvt.obj
 0004:00000d20       $pdata$?fp_format_f_internal@@YAHQEAD_KHQEAU_strflt@@_NQEAU__crt_locale_pointers@@@Z 0000000180024d20     libucrt:cvt.obj
 0004:00000d2c       $pdata$?fp_format_g@@YAHQEBNQEAD_K12H_NIQEAU__crt_locale_pointers@@@Z 0000000180024d2c     libucrt:cvt.obj
 0004:00000d38       $pdata$?fp_format_nan_or_infinity@@YAHW4__acrt_fp_class@@_NPEAD_K1@Z 0000000180024d38     libucrt:cvt.obj
 0004:00000d44       $pdata$__acrt_fp_format    0000000180024d44     libucrt:cvt.obj
 0004:00000d50       $pdata$_fputwc_nolock      0000000180024d50     libucrt:fputwc.obj
 0004:00000d5c       $pdata$_fileno             0000000180024d5c     libucrt:fileno.obj
 0004:00000d68       $pdata$__pctype_func       0000000180024d68     libucrt:ctype.obj
 0004:00000d74       $pdata$iswctype            0000000180024d74     libucrt:iswctype.obj
 0004:00000d80       $pdata$_isctype_l          0000000180024d80     libucrt:isctype.obj
 0004:00000d8c       $pdata$_fcloseall          0000000180024d8c     libucrt:closeall.obj
 0004:00000d98       $pdata$__acrt_stdio_free_buffer_nolock 0000000180024d98     libucrt:_freebuf.obj
 0004:00000da4       $pdata$??$?RV<lambda_a37b2b86f63e897a80ea819b0eb08c01>@@AEAV<lambda_38ce7e780aa69e748d6df282ebc68efe>@@V<lambda_99fb1378e971ab6e7edea83e3a7a83a2>@@@?$__crt_seh_guarded_call@H@@QEAAH$$QEAV<lambda_a37b2b86f63e897a80ea819b0eb08c01>@@AEAV<lambda_38ce7e780aa69e748d6df282ebc68efe>@@$$QEAV<lambda_99fb1378e971ab6e7edea83e3a7a83a2>@@@Z 0000000180024da4     libucrt:commit.obj
 0004:00000db0       $pdata$_commit             0000000180024db0     libucrt:commit.obj
 0004:00000dbc       $pdata$?write_double_translated_ansi_nolock@@YA?AUwrite_result@?A0x17268360@@HQEBDI@Z 0000000180024dbc     libucrt:write.obj
 0004:00000dc8       $pdata$?write_text_ansi_nolock@@YA?AUwrite_result@?A0x17268360@@HQEBDI@Z 0000000180024dc8     libucrt:write.obj
 0004:00000dd4       $pdata$?write_text_utf16le_nolock@@YA?AUwrite_result@?A0x17268360@@HQEBDI@Z 0000000180024dd4     libucrt:write.obj
 0004:00000de0       $pdata$?write_text_utf8_nolock@@YA?AUwrite_result@?A0x17268360@@HQEBDI@Z 0000000180024de0     libucrt:write.obj
 0004:00000dec       $pdata$_write              0000000180024dec     libucrt:write.obj
 0004:00000df8       $pdata$_write_nolock       0000000180024df8     libucrt:write.obj
 0004:00000e04       $pdata$_isleadbyte_l       0000000180024e04     libucrt:_wctype.obj
 0004:00000e10       $pdata$?__acrt_LCMapStringA_stat@@YAHPEAU__crt_locale_pointers@@PEB_WKPEBDHPEADHHH@Z 0000000180024e10     libucrt:lcmapstringa.obj
 0004:00000e1c       $pdata$__acrt_LCMapStringA 0000000180024e1c     libucrt:lcmapstringa.obj
 0004:00000e28       $pdata$__acrt_free_locale  0000000180024e28     libucrt:locale_refcounting.obj
 0004:00000e34       $pdata$__acrt_locale_free_lc_time_if_unreferenced 0000000180024e34     libucrt:locale_refcounting.obj
 0004:00000e40       $pdata$__acrt_release_locale_ref 0000000180024e40     libucrt:locale_refcounting.obj
 0004:00000e4c       $pdata$__acrt_update_thread_locale_data 0000000180024e4c     libucrt:locale_refcounting.obj
 0004:00000e58       $pdata$_updatetlocinfoEx_nolock 0000000180024e58     libucrt:locale_refcounting.obj
 0004:00000e64       $pdata$__acrt_locale_free_monetary 0000000180024e64     libucrt:initmon.obj
 0004:00000e70       $pdata$__acrt_locale_free_numeric 0000000180024e70     libucrt:initnum.obj
 0004:00000e7c       $pdata$?free_crt_array_internal@@YAXQEAPEBX_K@Z 0000000180024e7c     libucrt:inittime.obj
 0004:00000e88       $pdata$__acrt_locale_free_time 0000000180024e88     libucrt:inittime.obj
 0004:00000e94       $pdata$__acrt_GetStringTypeA 0000000180024e94     libucrt:getstringtypea.obj
 0004:00000ea0       $pdata$qsort               0000000180024ea0     libucrt:qsort.obj
 0004:00000eac       $pdata$4$qsort             0000000180024eac     libucrt:qsort.obj
 0004:00000eb8       $pdata$5$qsort             0000000180024eb8     libucrt:qsort.obj
 0004:00000ec4       $pdata$strncpy_s           0000000180024ec4     libucrt:strncpy_s.obj
 0004:00000ed0       $pdata$fallbackMethod      0000000180024ed0     libucrt:strpbrk.obj
 0004:00000edc       $pdata$strpbrk             0000000180024edc     libucrt:strpbrk.obj
 0004:00000ee8       $pdata$_mbsdec_l           0000000180024ee8     libucrt:mbsdec.obj
 0004:00000ef4       $pdata$?initialize_multibyte@@YAHXZ 0000000180024ef4     libucrt:multibyte_initializer.obj
 0004:00000f00       $pdata$_msize_base         0000000180024f00     libucrt:msize.obj
 0004:00000f0c       $pdata$_realloc_base       0000000180024f0c     libucrt:realloc_base.obj
 0004:00000f18       $pdata$?GetTableIndexFromLocaleName@@YAHPEB_W@Z 0000000180024f18     libucrt:lcidtoname_downlevel.obj
 0004:00000f24       $pdata$__acrt_DownlevelLocaleNameToLCID 0000000180024f24     libucrt:lcidtoname_downlevel.obj
 0004:00000f30       $pdata$__acrt_lowio_create_handle_array 0000000180024f30     libucrt:osfinfo.obj
 0004:00000f3c       $pdata$__acrt_lowio_destroy_handle_array 0000000180024f3c     libucrt:osfinfo.obj
 0004:00000f48       $pdata$__acrt_lowio_ensure_fh_exists 0000000180024f48     libucrt:osfinfo.obj
 0004:00000f54       $pdata$_free_osfhnd        0000000180024f54     libucrt:osfinfo.obj
 0004:00000f60       $pdata$_get_osfhandle      0000000180024f60     libucrt:osfinfo.obj
 0004:00000f6c       $pdata$_isatty             0000000180024f6c     libucrt:isatty.obj
 0004:00000f78       $pdata$?__mbrtowc_utf8@__crt_mbstring@@YA_KPEA_WPEBD_KPEAU_Mbstatet@@@Z 0000000180024f78     libucrt:mbrtowc.obj
 0004:00000f84       $pdata$?__mbsrtowcs_utf8@__crt_mbstring@@YA_KPEA_WPEAPEBD_KPEAU_Mbstatet@@@Z 0000000180024f84     libucrt:mbrtowc.obj
 0004:00000f90       $pdata$?__c32rtomb_utf8@__crt_mbstring@@YA_KPEAD_UPEAU_Mbstatet@@@Z 0000000180024f90     libucrt:c32rtomb.obj
 0004:00000f9c       $pdata$__acrt_fp_strflt_to_string 0000000180024f9c     libucrt:_fptostr.obj
 0004:00000fa8       $pdata$?divide@__crt_strtox@@YA_KAEAUbig_integer@1@AEBU21@@Z 0000000180024fa8     libucrt:cfout.obj
 0004:00000fb4       $pdata$0$?divide@__crt_strtox@@YA_KAEAUbig_integer@1@AEBU21@@Z 0000000180024fb4     libucrt:cfout.obj
 0004:00000fc0       $pdata$1$?divide@__crt_strtox@@YA_KAEAUbig_integer@1@AEBU21@@Z 0000000180024fc0     libucrt:cfout.obj
 0004:00000fcc       $pdata$__acrt_fltout       0000000180024fcc     libucrt:cfout.obj
 0004:00000fd8       $pdata$memcpy_s            0000000180024fd8     libucrt:cfout.obj
 0004:00000fe4       $pdata$??$write_buffer_nolock@D@@YA_NDV__crt_stdio_stream@@@Z 0000000180024fe4     libucrt:_flsbuf.obj
 0004:00000ff0       $pdata$??$write_buffer_nolock@_W@@YA_N_WV__crt_stdio_stream@@@Z 0000000180024ff0     libucrt:_flsbuf.obj
 0004:00000ffc       $pdata$?stream_is_at_end_of_file_nolock@@YA_NV__crt_stdio_stream@@@Z 0000000180024ffc     libucrt:_flsbuf.obj
 0004:00001008       $pdata$__acrt_stdio_flush_and_write_narrow_nolock 0000000180025008     libucrt:_flsbuf.obj
 0004:00001014       $pdata$__acrt_stdio_flush_and_write_wide_nolock 0000000180025014     libucrt:_flsbuf.obj
 0004:00001020       $pdata$_fclose_nolock      0000000180025020     libucrt:fclose.obj
 0004:0000102c       $pdata$fclose              000000018002502c     libucrt:fclose.obj
 0004:00001038       $pdata$??$common_lseek@_J@@YA_JH_JH@Z 0000000180025038     libucrt:lseek.obj
 0004:00001044       $pdata$??$common_lseek_nolock@_J@@YA_JH_JH@Z 0000000180025044     libucrt:lseek.obj
 0004:00001050       $pdata$_putwch_nolock      0000000180025050     libucrt:putwch.obj
 0004:0000105c       $pdata$?__mbrtoc32_utf8@__crt_mbstring@@YA_KPEA_UPEBD_KPEAU_Mbstatet@@@Z 000000018002505c     libucrt:mbrtoc32.obj
 0004:00001068       $pdata$fegetenv            0000000180025068     libucrt:fegetenv.obj
 0004:00001074       $pdata$fesetenv            0000000180025074     libucrt:fesetenv.obj
 0004:00001080       $pdata$feholdexcept        0000000180025080     libucrt:feholdexcept.obj
 0004:00001098       $pdata$__acrt_stdio_allocate_buffer_nolock 0000000180025098     libucrt:_getbuf.obj
 0004:000010a4       $pdata$??$?RV<lambda_751a882b2c74d4b022dec766aa51a29a>@@AEAV<lambda_628dfdc04ba53c8bfc02c9951375f3f5>@@V<lambda_f6c7be5f7998530c34de24c7437d6b54>@@@?$__crt_seh_guarded_call@H@@QEAAH$$QEAV<lambda_751a882b2c74d4b022dec766aa51a29a>@@AEAV<lambda_628dfdc04ba53c8bfc02c9951375f3f5>@@$$QEAV<lambda_f6c7be5f7998530c34de24c7437d6b54>@@@Z 00000001800250a4     libucrt:close.obj
 0004:000010b0       $pdata$_close              00000001800250b0     libucrt:close.obj
 0004:000010bc       $pdata$_close_nolock       00000001800250bc     libucrt:close.obj
 0004:000010c8       $pdata$__dcrt_lowio_ensure_console_output_initialized 00000001800250c8     libucrt:initcon.obj
 0004:000010d4       $pdata$__dcrt_terminate_console_output 00000001800250d4     libucrt:initcon.obj
 0004:000010e0       $pdata$__dcrt_write_console 00000001800250e0     libucrt:initcon.obj
 0004:000010ec       $pdata$__acrt_fenv_set_control 00000001800250ec     libucrt:_fenvutils.obj
 0004:000010f8       $pdata$_clearfp            00000001800250f8     libucrt:ieee.obj
 0004:00001104       $pdata$_call_matherr       0000000180025104     libucrt:libm_error.obj
 0004:00001110       $pdata$_exception_enabled  0000000180025110     libucrt:libm_error.obj
 0004:0000111c       $pdata$_handle_error       000000018002511c     libucrt:libm_error.obj
 0004:00001128       $pdata$__acrt_initialize_fma3 0000000180025128     libucrt:fma3_available.obj
 0004:00001134       $pdata$_log10_special      0000000180025134     libucrt:log_special.obj
 0004:00001140       $pdata$_log_special_common 0000000180025140     libucrt:log_special.obj
 0004:00001158       $pdata$_raise_exc          0000000180025158     libucrt:fpexcept.obj
 0004:00001164       $pdata$_raise_exc_ex       0000000180025164     libucrt:fpexcept.obj
 0004:00001170       $pdata$_set_errno_from_matherr 0000000180025170     libucrt:fpexcept.obj
 0004:0000117c       $pdata$_clrfp              000000018002517c     libucrt:fpctrl.obj
 0004:00001188       $pdata$_ctrlfp             0000000180025188     libucrt:fpctrl.obj
 0004:00001194       $pdata$_set_statfp         0000000180025194     libucrt:fpctrl.obj
 0004:000011a0       $pdata$_statfp             00000001800251a0     libucrt:fpctrl.obj
 0004:000011ac       $pdata$?DloadAcquireSectionWriteAccess@@YAXXZ 00000001800251ac     DelayImp:delayhlp.obj
 0004:000011b8       $pdata$?DloadGetSRWLockFunctionPointers@@YAEXZ 00000001800251b8     DelayImp:delayhlp.obj
 0004:000011c4       $pdata$?DloadMakePermanentImageCommit@@YAXPEAX_K@Z 00000001800251c4     DelayImp:delayhlp.obj
 0004:000011d0       $pdata$?DloadObtainSection@@YAPEAXPEAK0@Z 00000001800251d0     DelayImp:delayhlp.obj
 0004:000011dc       $pdata$?DloadProtectSection@@YAXKPEAK@Z 00000001800251dc     DelayImp:delayhlp.obj
 0004:000011e8       $pdata$?DloadReleaseSectionWriteAccess@@YAXXZ 00000001800251e8     DelayImp:delayhlp.obj
 0004:000011f4       $pdata$__delayLoadHelper2  00000001800251f4     DelayImp:delayhlp.obj
 0004:00001200       $pdata$_IsNonwritableInCurrentImage 0000000180025200     LIBCMT:pesect.obj
 0004:0000120c       $pdata$__GSHandlerCheck    000000018002520c     LIBCMT:gshandler.obj
 0004:00001218       $pdata$__GSHandlerCheckCommon 0000000180025218     LIBCMT:gshandler.obj
 0004:0000123c       $pdata$strrchr             000000018002523c     libvcruntime:strrchr.obj
 0004:00001254       $pdata$?fin$0@?0??dllmain_crt_process_attach@@YAHQEAUHINSTANCE__@@QEAX@Z@4HA 0000000180025254     LIBCMT:dll_dllmain.obj
 0004:00001260       $pdata$?fin$0@?0??dllmain_crt_process_detach@@YAH_N@Z@4HA 0000000180025260     LIBCMT:dll_dllmain.obj
 0004:0000126c       $pdata$?filt$0@?0??dllmain_dispatch@@YAHQEAUHINSTANCE__@@KQEAX@Z@4HA 000000018002526c     LIBCMT:dll_dllmain.obj
 0004:00001278       $pdata$__scrt_is_nonwritable_in_current_image$filt$0 0000000180025278     LIBCMT:utility.obj
 0004:00001284       $pdata$__DestructExceptionObject$filt$0 0000000180025284     libvcruntime:ehhelpers.obj
 0004:00001290       $pdata$_query_new_handler$fin$0 0000000180025290     libucrt:new_handler.obj
 0004:0000129c       $pdata$?fin$0@?0???$?RV<lambda_d80eeec6fff315bfe5c115232f3240e3>@@AEAV<lambda_6e4b09c48022b2350581041d5f6b0c4c>@@V<lambda_2358e3775559c9db80273638284d5e45>@@@?$__crt_seh_guarded_call@X@@QEAAX$$QEAV<lambda_d80eeec6fff315bfe5c115232f3240e3>@@AEAV<lambda_6e4b09c48022b2350581041d5f6b0c4c>@@$$QEAV<lambda_2358e3775559c9db80273638284d5e45>@@@Z@4HA 000000018002529c     libucrt:exit.obj
 0004:0000129c       $pdata$?fin$0@?0???$?RV<lambda_450d765d439847d4c735a33c368b5fc0>@@AEAV<lambda_44731a7d0e6d81c3e6aa82d741081786>@@V<lambda_601a2a7da3b7a96e9554ac7215c4b07c>@@@?$__crt_seh_guarded_call@P6AXH@Z@@QEAAP6AXH@Z$$QEAV<lambda_450d765d439847d4c735a33c368b5fc0>@@AEAV<lambda_44731a7d0e6d81c3e6aa82d741081786>@@$$QEAV<lambda_601a2a7da3b7a96e9554ac7215c4b07c>@@@Z@4HA 000000018002529c     libucrt:signal.obj
 0004:0000129c       $pdata$?fin$0@?0???$?RV<lambda_aa87e3671a710a21b5dc78c0bdf72e11>@@AEAV<lambda_92619d2358a28f41a33ba319515a20b9>@@V<lambda_6992ecaafeb10aed2b74cb1fae11a551>@@@?$__crt_seh_guarded_call@X@@QEAAX$$QEAV<lambda_aa87e3671a710a21b5dc78c0bdf72e11>@@AEAV<lambda_92619d2358a28f41a33ba319515a20b9>@@$$QEAV<lambda_6992ecaafeb10aed2b74cb1fae11a551>@@@Z@4HA 000000018002529c     libucrt:per_thread_data.obj
 0004:0000129c       $pdata$?fin$0@?0???$?RV<lambda_7777bce6b2f8c936911f934f8298dc43>@@AEAV<lambda_f03950bc5685219e0bcd2087efbe011e>@@V<lambda_3883c3dff614d5e0c5f61bb1ac94921c>@@@?$__crt_seh_guarded_call@H@@QEAAH$$QEAV<lambda_7777bce6b2f8c936911f934f8298dc43>@@AEAV<lambda_f03950bc5685219e0bcd2087efbe011e>@@$$QEAV<lambda_3883c3dff614d5e0c5f61bb1ac94921c>@@@Z@4HA 000000018002529c     libucrt:onexit.obj
 0004:0000129c       $pdata$?fin$0@?0???$?RV<lambda_f2e299630e499de9f9a165e60fcd3db5>@@AEAV<lambda_2ae9d31cdba2644fcbeaf08da7c24588>@@V<lambda_40d01ff24d0e7b3814fdbdcee8eab3c7>@@@?$__crt_seh_guarded_call@X@@QEAAX$$QEAV<lambda_f2e299630e499de9f9a165e60fcd3db5>@@AEAV<lambda_2ae9d31cdba2644fcbeaf08da7c24588>@@$$QEAV<lambda_40d01ff24d0e7b3814fdbdcee8eab3c7>@@@Z@4HA 000000018002529c     libucrt:per_thread_data.obj
 0004:0000129c       $pdata$?fin$0@?0???$?RV<lambda_efdfa57d1f175319df784efa44bb7b81>@@AEAV<lambda_5f0a4c1567f8adc6734073e5d1e1b35c>@@V<lambda_2e8a7d3640ea6ccb4c2413664c2db6fd>@@@?$__crt_seh_guarded_call@X@@QEAAX$$QEAV<lambda_efdfa57d1f175319df784efa44bb7b81>@@AEAV<lambda_5f0a4c1567f8adc6734073e5d1e1b35c>@@$$QEAV<lambda_2e8a7d3640ea6ccb4c2413664c2db6fd>@@@Z@4HA 000000018002529c     libucrt:mbctype.obj
 0004:0000129c       $pdata$?fin$0@?0???$?RV<lambda_0ae27a3a962d80f24befdcbee591983d>@@AEAV<lambda_8d0ee55de4b1038c4002e0adecdf1839>@@V<lambda_dc504788e8f1664fe9b84e20bfb512f2>@@@?$__crt_seh_guarded_call@X@@QEAAX$$QEAV<lambda_0ae27a3a962d80f24befdcbee591983d>@@AEAV<lambda_8d0ee55de4b1038c4002e0adecdf1839>@@$$QEAV<lambda_dc504788e8f1664fe9b84e20bfb512f2>@@@Z@4HA 000000018002529c     libucrt:per_thread_data.obj
 0004:0000129c       $pdata$?fin$0@?0???$?RV<lambda_2d41944a1d46af3157314b8a01080d33>@@AEAV<lambda_8f455de75cd7d7f24b4096f044d8b9e6>@@V<lambda_aa500f224e6afead328df44964fe2772>@@@?$__crt_seh_guarded_call@X@@QEAAX$$QEAV<lambda_2d41944a1d46af3157314b8a01080d33>@@AEAV<lambda_8f455de75cd7d7f24b4096f044d8b9e6>@@$$QEAV<lambda_aa500f224e6afead328df44964fe2772>@@@Z@4HA 000000018002529c     libucrt:per_thread_data.obj
 0004:000012a8       $pdata$?filt$0@?0???R<lambda_6e4b09c48022b2350581041d5f6b0c4c>@@QEBA@XZ@4HA 00000001800252a8     libucrt:exit.obj
 0004:000012b4       $pdata$?fin$0@?0???$?RV<lambda_842d9ff0dc9ef11c61343bbaebe7f885>@@AEAV<lambda_c5860995281e5c4ce005b3de8f5874ee>@@V<lambda_d90129c13df834fdcbf8d2b88dafcf2d>@@@?$__crt_seh_guarded_call@X@@QEAAX$$QEAV<lambda_842d9ff0dc9ef11c61343bbaebe7f885>@@AEAV<lambda_c5860995281e5c4ce005b3de8f5874ee>@@$$QEAV<lambda_d90129c13df834fdcbf8d2b88dafcf2d>@@@Z@4HA 00000001800252b4     libucrt:fflush.obj
 0004:000012b4       $pdata$?fin$0@?0???$?RV<lambda_84ec643ea9557e2f7dc01bb0e9624395>@@AEAV<lambda_ca71763b3c0644891230e4f79ea54fa6>@@V<lambda_439a761618c59b0600e24586724d733b>@@@?$__crt_seh_guarded_call@H@@QEAAH$$QEAV<lambda_84ec643ea9557e2f7dc01bb0e9624395>@@AEAV<lambda_ca71763b3c0644891230e4f79ea54fa6>@@$$QEAV<lambda_439a761618c59b0600e24586724d733b>@@@Z@4HA 00000001800252b4     libucrt:setvbuf.obj
 0004:000012b4       $pdata$?fin$0@?0???$?RV<lambda_c376a267cfb53b6959b3b692ec76b120>@@AEAV<lambda_9a32fed5bf61b6b509b2d3f6003082a1>@@V<lambda_572fbb9fa0ab338edf41edfd4b5fcc8d>@@@?$__crt_seh_guarded_call@H@@QEAAH$$QEAV<lambda_c376a267cfb53b6959b3b692ec76b120>@@AEAV<lambda_9a32fed5bf61b6b509b2d3f6003082a1>@@$$QEAV<lambda_572fbb9fa0ab338edf41edfd4b5fcc8d>@@@Z@4HA 00000001800252b4     libucrt:fflush.obj
 0004:000012b4       $pdata$?fin$0@?0???$?RV<lambda_0d412022a4b28cc8a401ea49574e8ae6>@@AEAV<lambda_a775ed57af18ba8e4d5dc780aa9068fe>@@V<lambda_975a71a6baa488a08f4e15f6b0339b9e>@@@?$__crt_seh_guarded_call@H@@QEAAH$$QEAV<lambda_0d412022a4b28cc8a401ea49574e8ae6>@@AEAV<lambda_a775ed57af18ba8e4d5dc780aa9068fe>@@$$QEAV<lambda_975a71a6baa488a08f4e15f6b0339b9e>@@@Z@4HA 00000001800252b4     libucrt:output.obj
 0004:000012c0       $pdata$?fin$0@?0???$?RV<lambda_886d6c58226a84441f68b9f2b8217b83>@@AEAV<lambda_ab61a845afdef5b7c387490eaf3616ee>@@V<lambda_f7f22ab5edc0698d5f6905b0d3f44752>@@@?$__crt_seh_guarded_call@X@@QEAAX$$QEAV<lambda_886d6c58226a84441f68b9f2b8217b83>@@AEAV<lambda_ab61a845afdef5b7c387490eaf3616ee>@@$$QEAV<lambda_f7f22ab5edc0698d5f6905b0d3f44752>@@@Z@4HA 00000001800252c0     libucrt:fflush.obj
 0004:000012cc       $pdata$raise$fin$0         00000001800252cc     libucrt:signal.obj
 0004:000012d8       $pdata$?fin$0@?0???$?RV<lambda_410d79af7f07d98d83a3f525b3859a53>@@AEAV<lambda_3e16ef9562a7dcce91392c22ab16ea36>@@V<lambda_38119f0e861e05405d8a144b9b982f0a>@@@?$__crt_seh_guarded_call@X@@QEAAX$$QEAV<lambda_410d79af7f07d98d83a3f525b3859a53>@@AEAV<lambda_3e16ef9562a7dcce91392c22ab16ea36>@@$$QEAV<lambda_38119f0e861e05405d8a144b9b982f0a>@@@Z@4HA 00000001800252d8     libucrt:wsetlocale.obj
 0004:000012e4       $pdata$?fin$0@?0??update_thread_multibyte_data_internal@@YAPEAU__crt_multibyte_data@@QEAU__acrt_ptd@@QEAPEAU1@@Z@4HA 00000001800252e4     libucrt:mbctype.obj
 0004:000012f0       $pdata$__acrt_lowio_ensure_fh_exists$fin$0 00000001800252f0     libucrt:osfinfo.obj
 0004:000012f0       $pdata$__acrt_initialize_lowio$fin$0 00000001800252f0     libucrt:ioinit.obj
 0004:000012fc       $pdata$_fcloseall$fin$0    00000001800252fc     libucrt:closeall.obj
 0004:00001308       $pdata$?fin$0@?0???$?RV<lambda_751a882b2c74d4b022dec766aa51a29a>@@AEAV<lambda_628dfdc04ba53c8bfc02c9951375f3f5>@@V<lambda_f6c7be5f7998530c34de24c7437d6b54>@@@?$__crt_seh_guarded_call@H@@QEAAH$$QEAV<lambda_751a882b2c74d4b022dec766aa51a29a>@@AEAV<lambda_628dfdc04ba53c8bfc02c9951375f3f5>@@$$QEAV<lambda_f6c7be5f7998530c34de24c7437d6b54>@@@Z@4HA 0000000180025308     libucrt:close.obj
 0004:00001308       $pdata$?fin$0@?0???$?RV<lambda_a37b2b86f63e897a80ea819b0eb08c01>@@AEAV<lambda_38ce7e780aa69e748d6df282ebc68efe>@@V<lambda_99fb1378e971ab6e7edea83e3a7a83a2>@@@?$__crt_seh_guarded_call@H@@QEAAH$$QEAV<lambda_a37b2b86f63e897a80ea819b0eb08c01>@@AEAV<lambda_38ce7e780aa69e748d6df282ebc68efe>@@$$QEAV<lambda_99fb1378e971ab6e7edea83e3a7a83a2>@@@Z@4HA 0000000180025308     libucrt:commit.obj
 0004:00001314       $pdata$_write$fin$0        0000000180025314     libucrt:write.obj
 0004:00001314       $pdata$?fin$0@?0???$common_lseek@_J@@YA_JH_JH@Z@4HA 0000000180025314     libucrt:lseek.obj
 0004:00001320       $pdata$__acrt_update_thread_locale_data$fin$0 0000000180025320     libucrt:locale_refcounting.obj
 0004:0000132c       $pdata$fclose$fin$0        000000018002532c     libucrt:fclose.obj
 0004:00001338       $pdata$_ctrlfp$filt$0      0000000180025338     libucrt:fpctrl.obj
 0004:00001344       $pdata$_IsNonwritableInCurrentImage$filt$0 0000000180025344     LIBCMT:pesect.obj
 0005:00000060       $R000000                   0000000180026060     * linker generated manifest res *

 Exports

  ordinal    name

        1    _register_bufferutil_
